


ARM Macro Assembler    Page 1 


    1 00000000         #line   1                "MQXLITE\\psp\\cortex_m\\core\\
M0\\dispatch.S"
    1 00000000         
    2 00000000         
    3 00000000         
    4 00000000         
    5 00000000         
    6 00000000         
    7 00000000         
    8 00000000         
    9 00000000         
   10 00000000         
   11 00000000         
   12 00000000         
   13 00000000         
   14 00000000         
   15 00000000         
   16 00000000         
   17 00000000         
   18 00000000         
   19 00000000         
   20 00000000         
   21 00000000         
   22 00000000         
   23 00000000         
   24 00000000         
   25 00000000         
   26 00000000         
   27 00000000         
   28 00000000         
   29 00000000         
   30 00000000         
   31 00000000         
   32 00000000         #line   1                ".\\MQXLITE\\psp\\cortex_m\\com
piler\\rv\\asm_mac.h"
    1 00000000         
    2 00000000         
    3 00000000         
    4 00000000         
    5 00000000         
    6 00000000         
    7 00000000         
    8 00000000         
    9 00000000         
   10 00000000         
   11 00000000         
   12 00000000         
   13 00000000         
   14 00000000         
   15 00000000         
   16 00000000         
   17 00000000         
   18 00000000         
   19 00000000         
   20 00000000         
   21 00000000         
   22 00000000         
   23 00000000         
   24 00000000         



ARM Macro Assembler    Page 2 


   25 00000000         
   26 00000000         
   27 00000000         
   28 00000000         
   29 00000000         
   30 00000000         
   31 00000000         
   32 00000000         
   33 00000000         
   34 00000000         
   35 00000000         
   36 00000000         
   37 00000000         
   38 00000000         
   39 00000000         
   40 00000000         
   41 00000000         
   42 00000000         
   43 00000000         
   44 00000000         
   45 00000000         
   46 00000000         
   47 00000000         
   48 00000000         
   49 00000000         #line   56               ".\\MQXLITE\\psp\\cortex_m\\com
piler\\rv\\asm_mac.h"
   56 00000000         
   57 00000000         
   58 00000000         
   59 00000000         
   60 00000000         
   61 00000000                 PRESERVE8        {TRUE}
   62 00000000         
   63 00000000         #line   33               "MQXLITE\\psp\\cortex_m\\core\\
M0\\dispatch.S"
   33 00000000         
   34 00000000         #line   1                ".\\MQXLITE\\include\\mqx_cnfg.
h"
    1 00000000         
    2 00000000         
    3 00000000         
    4 00000000         
    5 00000000         
    6 00000000         
    7 00000000         
    8 00000000         
    9 00000000         
   10 00000000         
   11 00000000         
   12 00000000         
   13 00000000         
   14 00000000         
   15 00000000         
   16 00000000         
   17 00000000         
   18 00000000         
   19 00000000         
   20 00000000         
   21 00000000         



ARM Macro Assembler    Page 3 


   22 00000000         
   23 00000000         
   24 00000000         
   25 00000000         
   26 00000000         
   27 00000000         
   28 00000000         
   29 00000000         
   30 00000000         
   31 00000000         
   32 00000000         
   33 00000000         
   34 00000000         
   35 00000000         
   36 00000000         
   37 00000000         
   38 00000000         
   39 00000000         
   40 00000000         
   41 00000000         
   42 00000000         
   43 00000000         
   44 00000000         
   45 00000000         
   46 00000000         
   47 00000000         
   48 00000000         
   49 00000000         
   50 00000000         
   51 00000000         
   52 00000000         
   53 00000000         
   54 00000000         
   55 00000000         
   56 00000000         
   57 00000000         
   58 00000000         
   59 00000000         
   60 00000000         
   61 00000000         
   62 00000000         
   63 00000000         
   64 00000000         
   65 00000000         
   66 00000000         
   67 00000000         
   68 00000000         
   69 00000000         
   70 00000000         
   71 00000000         
   72 00000000         
   73 00000000         
   74 00000000         
   75 00000000         
   76 00000000         
   77 00000000         
   78 00000000         
   79 00000000         
   80 00000000         



ARM Macro Assembler    Page 4 


   81 00000000         
   82 00000000         
   83 00000000         
   84 00000000         
   85 00000000         
   86 00000000         
   87 00000000         
   88 00000000         
   89 00000000         
   90 00000000         
   91 00000000         
   92 00000000         
   93 00000000         
   94 00000000         #line   1                ".\\MQXLITE\\config\\user_confi
g.h"
    1 00000000         
    2 00000000         
    3 00000000         
    4 00000000         
    5 00000000         
    6 00000000         
    7 00000000         
    8 00000000         
    9 00000000         
   10 00000000         
   11 00000000         
   12 00000000         
   13 00000000         
   14 00000000         
   15 00000000         
   16 00000000         
   17 00000000         
   18 00000000         
   19 00000000         
   20 00000000         
   21 00000000         
   22 00000000         
   23 00000000         
   24 00000000         
   25 00000000         
   26 00000000         
   27 00000000         
   28 00000000         
   29 00000000         
   30 00000000         
   31 00000000         
   32 00000000         
   33 00000000         
   34 00000000         
   35 00000000         
   36 00000000         
   37 00000000         
   38 00000000         
   39 00000000         
   40 00000000         
   41 00000000         
   42 00000000         
   43 00000000         
   44 00000000         



ARM Macro Assembler    Page 5 


   45 00000000         
   46 00000000         
   47 00000000         
   48 00000000         
   49 00000000         
   50 00000000         
   51 00000000         
   52 00000000         
   53 00000000         
   54 00000000         
   55 00000000         
   56 00000000         
   57 00000000         
   58 00000000         
   59 00000000         
   60 00000000         #line   66               ".\\MQXLITE\\config\\user_confi
g.h"
   66 00000000         
   67 00000000         
   68 00000000         
   69 00000000         
   70 00000000         
   71 00000000         
   72 00000000         
   73 00000000         
   74 00000000         
   75 00000000         
   76 00000000         
   77 00000000         
   78 00000000         
   79 00000000         
   80 00000000         
   81 00000000         
   82 00000000         
   83 00000000         
   84 00000000         
   85 00000000         
   86 00000000         
   87 00000000         
   88 00000000         
   89 00000000         
   90 00000000         
   91 00000000         
   92 00000000         
   93 00000000         
   94 00000000         
   95 00000000         
   96 00000000         
   97 00000000         #line   95               ".\\MQXLITE\\include\\mqx_cnfg.
h"
   95 00000000         
   96 00000000         #line   1                ".\\MQXLITE\\include\\mqxlite_c
nfg.h"
    1 00000000         
    2 00000000         
    3 00000000         
    4 00000000         
    5 00000000         
    6 00000000         



ARM Macro Assembler    Page 6 


    7 00000000         
    8 00000000         
    9 00000000         
   10 00000000         
   11 00000000         
   12 00000000         
   13 00000000         
   14 00000000         
   15 00000000         
   16 00000000         
   17 00000000         
   18 00000000         
   19 00000000         
   20 00000000         
   21 00000000         
   22 00000000         
   23 00000000         
   24 00000000         
   25 00000000         
   26 00000000         
   27 00000000         
   28 00000000         
   29 00000000         
   30 00000000         
   31 00000000         
   32 00000000         
   33 00000000         
   34 00000000         
   35 00000000         
   36 00000000         
   37 00000000         
   38 00000000         
   39 00000000         
   40 00000000         
   41 00000000         
   42 00000000         
   43 00000000         
   44 00000000         
   45 00000000         
   46 00000000         
   47 00000000         
   48 00000000         
   49 00000000         
   50 00000000         
   51 00000000         
   52 00000000         
   53 00000000         
   54 00000000         
   55 00000000         
   56 00000000         
   57 00000000         
   58 00000000         
   59 00000000         
   60 00000000         
   61 00000000         
   62 00000000         
   63 00000000         
   64 00000000         
   65 00000000         



ARM Macro Assembler    Page 7 


   66 00000000         
   67 00000000         
   68 00000000         
   69 00000000         
   70 00000000         
   71 00000000         
   72 00000000         
   73 00000000         
   74 00000000         
   75 00000000         
   76 00000000         
   77 00000000         
   78 00000000         
   79 00000000         
   80 00000000         
   81 00000000         
   82 00000000         
   83 00000000         
   84 00000000         
   85 00000000         
   86 00000000         
   87 00000000         
   88 00000000         
   89 00000000         
   90 00000000         
   91 00000000         
   92 00000000         
   93 00000000         
   94 00000000         
   95 00000000         
   96 00000000         
   97 00000000         
   98 00000000         
   99 00000000         
  100 00000000         
  101 00000000         
  102 00000000         
  103 00000000         
  104 00000000         
  105 00000000         
  106 00000000         
  107 00000000         
  108 00000000         
  109 00000000         
  110 00000000         
  111 00000000         
  112 00000000         
  113 00000000         
  114 00000000         
  115 00000000         
  116 00000000         
  117 00000000         
  118 00000000         
  119 00000000         
  120 00000000         
  121 00000000         
  122 00000000         
  123 00000000         
  124 00000000         



ARM Macro Assembler    Page 8 


  125 00000000         
  126 00000000         
  127 00000000         
  128 00000000         
  129 00000000         
  130 00000000         
  131 00000000         
  132 00000000         
  133 00000000         
  134 00000000         
  135 00000000         
  136 00000000         
  137 00000000         
  138 00000000         
  139 00000000         
  140 00000000         
  141 00000000         
  142 00000000         
  143 00000000         
  144 00000000         
  145 00000000         
  146 00000000         
  147 00000000         
  148 00000000         
  149 00000000         
  150 00000000         
  151 00000000         
  152 00000000         
  153 00000000         
  154 00000000         
  155 00000000         
  156 00000000         
  157 00000000         
  158 00000000         
  159 00000000         
  160 00000000         
  161 00000000         
  162 00000000         
  163 00000000         
  164 00000000         
  165 00000000         
  166 00000000         
  167 00000000         
  168 00000000         
  169 00000000         
  170 00000000         
  171 00000000         
  172 00000000         
  173 00000000         
  174 00000000         
  175 00000000         
  176 00000000         
  177 00000000         
  178 00000000         
  179 00000000         
  180 00000000         
  181 00000000         
  182 00000000         
  183 00000000         



ARM Macro Assembler    Page 9 


  184 00000000         
  185 00000000         
  186 00000000         
  187 00000000         
  188 00000000         
  189 00000000         
  190 00000000         
  191 00000000         
  192 00000000         
  193 00000000         
  194 00000000         
  195 00000000         
  196 00000000         
  197 00000000         
  198 00000000         
  199 00000000         
  200 00000000         
  201 00000000         
  202 00000000         
  203 00000000         
  204 00000000         
  205 00000000         
  206 00000000         
  207 00000000         
  208 00000000         
  209 00000000         
  210 00000000         
  211 00000000         
  212 00000000         
  213 00000000         
  214 00000000         
  215 00000000         
  216 00000000         
  217 00000000         
  218 00000000         
  219 00000000         
  220 00000000         
  221 00000000         
  222 00000000         
  223 00000000         
  224 00000000         
  225 00000000         
  226 00000000         
  227 00000000         
  228 00000000         
  229 00000000         
  230 00000000         
  231 00000000         
  232 00000000         
  233 00000000         
  234 00000000         
  235 00000000         
  236 00000000         
  237 00000000         
  238 00000000         
  239 00000000         
  240 00000000         
  241 00000000         
  242 00000000         



ARM Macro Assembler    Page 10 


  243 00000000         
  244 00000000         
  245 00000000         
  246 00000000         
  247 00000000         
  248 00000000         
  249 00000000         
  250 00000000         
  251 00000000         
  252 00000000         
  253 00000000         
  254 00000000         
  255 00000000         
  256 00000000         
  257 00000000         
  258 00000000         
  259 00000000         
  260 00000000         
  261 00000000         
  262 00000000         
  263 00000000         
  264 00000000         
  265 00000000         
  266 00000000         
  267 00000000         
  268 00000000         
  269 00000000         
  270 00000000         
  271 00000000         
  272 00000000         
  273 00000000         
  274 00000000         
  275 00000000         
  276 00000000         
  277 00000000         
  278 00000000         
  279 00000000         
  280 00000000         
  281 00000000         
  282 00000000         
  283 00000000         
  284 00000000         
  285 00000000         
  286 00000000         
  287 00000000         
  288 00000000         
  289 00000000         
  290 00000000         
  291 00000000         
  292 00000000         
  293 00000000         
  294 00000000         
  295 00000000         
  296 00000000         
  297 00000000         
  298 00000000         
  299 00000000         
  300 00000000         
  301 00000000         



ARM Macro Assembler    Page 11 


  302 00000000         
  303 00000000         
  304 00000000         
  305 00000000         
  306 00000000         
  307 00000000         
  308 00000000         
  309 00000000         
  310 00000000         
  311 00000000         
  312 00000000         
  313 00000000         
  314 00000000         
  315 00000000         
  316 00000000         
  317 00000000         
  318 00000000         
  319 00000000         
  320 00000000         
  321 00000000         
  322 00000000         
  323 00000000         
  324 00000000         
  325 00000000         
  326 00000000         
  327 00000000         
  328 00000000         
  329 00000000         
  330 00000000         
  331 00000000         
  332 00000000         
  333 00000000         
  334 00000000         
  335 00000000         
  336 00000000         
  337 00000000         
  338 00000000         
  339 00000000         
  340 00000000         
  341 00000000         
  342 00000000         
  343 00000000         
  344 00000000         
  345 00000000         
  346 00000000         
  347 00000000         
  348 00000000         
  349 00000000         
  350 00000000         
  351 00000000         
  352 00000000         
  353 00000000         
  354 00000000         
  355 00000000         
  356 00000000         
  357 00000000         
  358 00000000         
  359 00000000         
  360 00000000         



ARM Macro Assembler    Page 12 


  361 00000000         
  362 00000000         
  363 00000000         
  364 00000000         
  365 00000000         
  366 00000000         
  367 00000000         
  368 00000000         
  369 00000000         
  370 00000000         
  371 00000000         
  372 00000000         
  373 00000000         
  374 00000000         
  375 00000000         
  376 00000000         
  377 00000000         
  378 00000000         
  379 00000000         
  380 00000000         
  381 00000000         
  382 00000000         
  383 00000000         
  384 00000000         
  385 00000000         
  386 00000000         
  387 00000000         
  388 00000000         
  389 00000000         
  390 00000000         
  391 00000000         
  392 00000000         
  393 00000000         
  394 00000000         
  395 00000000         
  396 00000000         
  397 00000000         
  398 00000000         
  399 00000000         
  400 00000000         
  401 00000000         
  402 00000000         
  403 00000000         
  404 00000000         
  405 00000000         
  406 00000000         
  407 00000000         
  408 00000000         
  409 00000000         
  410 00000000         
  411 00000000         
  412 00000000         
  413 00000000         
  414 00000000         
  415 00000000         
  416 00000000         
  417 00000000         
  418 00000000         
  419 00000000         



ARM Macro Assembler    Page 13 


  420 00000000         
  421 00000000         
  422 00000000         
  423 00000000         
  424 00000000         
  425 00000000         
  426 00000000         
  427 00000000         
  428 00000000         
  429 00000000         
  430 00000000         
  431 00000000         
  432 00000000         
  433 00000000         
  434 00000000         
  435 00000000         
  436 00000000         
  437 00000000         
  438 00000000         
  439 00000000         
  440 00000000         
  441 00000000         
  442 00000000         
  443 00000000         
  444 00000000         
  445 00000000         
  446 00000000         
  447 00000000         
  448 00000000         
  449 00000000         
  450 00000000         
  451 00000000         
  452 00000000         
  453 00000000         
  454 00000000         
  455 00000000         
  456 00000000         
  457 00000000         
  458 00000000         
  459 00000000         
  460 00000000         
  461 00000000         
  462 00000000         
  463 00000000         
  464 00000000         
  465 00000000         
  466 00000000         
  467 00000000         
  468 00000000         
  469 00000000         
  470 00000000         
  471 00000000         
  472 00000000         
  473 00000000         
  474 00000000         
  475 00000000         
  476 00000000         
  477 00000000         
  478 00000000         



ARM Macro Assembler    Page 14 


  479 00000000         
  480 00000000         
  481 00000000         
  482 00000000         
  483 00000000         
  484 00000000         
  485 00000000         
  486 00000000         
  487 00000000         
  488 00000000         
  489 00000000         
  490 00000000         
  491 00000000         
  492 00000000         
  493 00000000         
  494 00000000         
  495 00000000         
  496 00000000         
  497 00000000         
  498 00000000         
  499 00000000         
  500 00000000         
  501 00000000         
  502 00000000         
  503 00000000         
  504 00000000         
  505 00000000         
  506 00000000         
  507 00000000         
  508 00000000         
  509 00000000         
  510 00000000         
  511 00000000         
  512 00000000         
  513 00000000         
  514 00000000         
  515 00000000         
  516 00000000         
  517 00000000         
  518 00000000         
  519 00000000         
  520 00000000         
  521 00000000         
  522 00000000         
  523 00000000         
  524 00000000         
  525 00000000         
  526 00000000         
  527 00000000         
  528 00000000         
  529 00000000         
  530 00000000         
  531 00000000         
  532 00000000         
  533 00000000         
  534 00000000         
  535 00000000         
  536 00000000         
  537 00000000         



ARM Macro Assembler    Page 15 


  538 00000000         
  539 00000000         
  540 00000000         
  541 00000000         
  542 00000000         
  543 00000000         
  544 00000000         
  545 00000000         
  546 00000000         
  547 00000000         
  548 00000000         
  549 00000000         
  550 00000000         
  551 00000000         
  552 00000000         
  553 00000000         
  554 00000000         
  555 00000000         
  556 00000000         
  557 00000000         
  558 00000000         
  559 00000000         
  560 00000000         
  561 00000000         
  562 00000000         
  563 00000000         
  564 00000000         
  565 00000000         
  566 00000000         
  567 00000000         
  568 00000000         
  569 00000000         
  570 00000000         
  571 00000000         
  572 00000000         
  573 00000000         
  574 00000000         
  575 00000000         
  576 00000000         
  577 00000000         
  578 00000000         
  579 00000000         
  580 00000000         
  581 00000000         
  582 00000000         
  583 00000000         
  584 00000000         
  585 00000000         
  586 00000000         
  587 00000000         
  588 00000000         
  589 00000000         
  590 00000000         
  591 00000000         
  592 00000000         
  593 00000000         
  594 00000000         
  595 00000000         
  596 00000000         



ARM Macro Assembler    Page 16 


  597 00000000         
  598 00000000         
  599 00000000         
  600 00000000         
  601 00000000         
  602 00000000         
  603 00000000         
  604 00000000         
  605 00000000         
  606 00000000         
  607 00000000         
  608 00000000         
  609 00000000         
  610 00000000         
  611 00000000         
  612 00000000         
  613 00000000         
  614 00000000         
  615 00000000         
  616 00000000         
  617 00000000         
  618 00000000         
  619 00000000         
  620 00000000         
  621 00000000         
  622 00000000         
  623 00000000         
  624 00000000         
  625 00000000         
  626 00000000         
  627 00000000         
  628 00000000         
  629 00000000         
  630 00000000         
  631 00000000         
  632 00000000         
  633 00000000         
  634 00000000         
  635 00000000         
  636 00000000         
  637 00000000         
  638 00000000         
  639 00000000         
  640 00000000         
  641 00000000         
  642 00000000         
  643 00000000         
  644 00000000         
  645 00000000         
  646 00000000         
  647 00000000         
  648 00000000         
  649 00000000         
  650 00000000         
  651 00000000         
  652 00000000         
  653 00000000         
  654 00000000         #line   661              ".\\MQXLITE\\include\\mqxlite_c
nfg.h"



ARM Macro Assembler    Page 17 


  661 00000000         
  662 00000000         
  663 00000000         
  664 00000000         
  665 00000000         
  666 00000000         
  667 00000000         
  668 00000000         
  669 00000000         
  670 00000000         
  671 00000000         
  672 00000000         
  673 00000000         
  674 00000000         
  675 00000000         
  676 00000000         
  677 00000000         
  678 00000000         
  679 00000000         
  680 00000000         
  681 00000000         
  682 00000000         
  683 00000000         
  684 00000000         
  685 00000000         
  686 00000000         
  687 00000000         
  688 00000000         
  689 00000000         
  690 00000000         
  691 00000000         
  692 00000000         
  693 00000000         
  694 00000000         
  695 00000000         
  696 00000000         
  697 00000000         
  698 00000000         
  699 00000000         
  700 00000000         
  701 00000000         
  702 00000000         
  703 00000000         
  704 00000000         
  705 00000000         
  706 00000000         
  707 00000000         
  708 00000000         
  709 00000000         
  710 00000000         
  711 00000000         
  712 00000000         
  713 00000000         
  714 00000000         
  715 00000000         
  716 00000000         
  717 00000000         
  718 00000000         
  719 00000000         



ARM Macro Assembler    Page 18 


  720 00000000         
  721 00000000         
  722 00000000         
  723 00000000         
  724 00000000         
  725 00000000         
  726 00000000         
  727 00000000         
  728 00000000         
  729 00000000         
  730 00000000         
  731 00000000         
  732 00000000         
  733 00000000         
  734 00000000         
  735 00000000         
  736 00000000         
  737 00000000         
  738 00000000         
  739 00000000         
  740 00000000         
  741 00000000         
  742 00000000         
  743 00000000         
  744 00000000         
  745 00000000         
  746 00000000         
  747 00000000         
  748 00000000         
  749 00000000         
  750 00000000         
  751 00000000         
  752 00000000         
  753 00000000         
  754 00000000         
  755 00000000         
  756 00000000         
  757 00000000         
  758 00000000         
  759 00000000         
  760 00000000         
  761 00000000         
  762 00000000         
  763 00000000         
  764 00000000         
  765 00000000         
  766 00000000         
  767 00000000         
  768 00000000         
  769 00000000         
  770 00000000         
  771 00000000         
  772 00000000         
  773 00000000         
  774 00000000         
  775 00000000         
  776 00000000         
  777 00000000         
  778 00000000         



ARM Macro Assembler    Page 19 


  779 00000000         
  780 00000000         
  781 00000000         
  782 00000000         
  783 00000000         
  784 00000000         
  785 00000000         
  786 00000000         
  787 00000000         
  788 00000000         
  789 00000000         
  790 00000000         
  791 00000000         
  792 00000000         
  793 00000000         
  794 00000000         
  795 00000000         
  796 00000000         
  797 00000000         
  798 00000000         
  799 00000000         
  800 00000000         
  801 00000000         
  802 00000000         
  803 00000000         
  804 00000000         
  805 00000000         
  806 00000000         
  807 00000000         
  808 00000000         
  809 00000000         
  810 00000000         
  811 00000000         
  812 00000000         
  813 00000000         
  814 00000000         
  815 00000000         
  816 00000000         
  817 00000000         
  818 00000000         
  819 00000000         
  820 00000000         
  821 00000000         
  822 00000000         
  823 00000000         
  824 00000000         
  825 00000000         
  826 00000000         
  827 00000000         
  828 00000000         
  829 00000000         
  830 00000000         
  831 00000000         
  832 00000000         
  833 00000000         
  834 00000000         
  835 00000000         
  836 00000000         
  837 00000000         



ARM Macro Assembler    Page 20 


  838 00000000         
  839 00000000         
  840 00000000         
  841 00000000         
  842 00000000         
  843 00000000         
  844 00000000         
  845 00000000         
  846 00000000         
  847 00000000         
  848 00000000         
  849 00000000         
  850 00000000         
  851 00000000         
  852 00000000         
  853 00000000         
  854 00000000         
  855 00000000         
  856 00000000         
  857 00000000         
  858 00000000         
  859 00000000         
  860 00000000         
  861 00000000         
  862 00000000         
  863 00000000         
  864 00000000         
  865 00000000         
  866 00000000         
  867 00000000         
  868 00000000         
  869 00000000         
  870 00000000         
  871 00000000         
  872 00000000         
  873 00000000         
  874 00000000         
  875 00000000         
  876 00000000         
  877 00000000         
  878 00000000         
  879 00000000         
  880 00000000         
  881 00000000         
  882 00000000         
  883 00000000         
  884 00000000         
  885 00000000         
  886 00000000         
  887 00000000         
  888 00000000         
  889 00000000         
  890 00000000         
  891 00000000         
  892 00000000         
  893 00000000         
  894 00000000         
  895 00000000         
  896 00000000         



ARM Macro Assembler    Page 21 


  897 00000000         
  898 00000000         
  899 00000000         
  900 00000000         
  901 00000000         
  902 00000000         
  903 00000000         
  904 00000000         
  905 00000000         #line   918              ".\\MQXLITE\\include\\mqxlite_c
nfg.h"
  918 00000000         
  919 00000000         
  920 00000000         
  921 00000000         
  922 00000000         #line   935              ".\\MQXLITE\\include\\mqxlite_c
nfg.h"
  935 00000000         
  936 00000000         
  937 00000000         
  938 00000000         
  939 00000000         
  940 00000000         
  941 00000000         
  942 00000000         
  943 00000000         
  944 00000000         
  945 00000000         
  946 00000000         #line   957              ".\\MQXLITE\\include\\mqxlite_c
nfg.h"
  957 00000000         
  958 00000000         
  959 00000000         
  960 00000000         
  961 00000000         
  962 00000000         
  963 00000000         
  964 00000000         
  965 00000000         
  966 00000000         
  967 00000000         
  968 00000000         
  969 00000000         
  970 00000000         
  971 00000000         
  972 00000000         
  973 00000000         
  974 00000000         
  975 00000000         
  976 00000000         
  977 00000000         
  978 00000000         
  979 00000000         
  980 00000000         
  981 00000000         #line   98               ".\\MQXLITE\\include\\mqx_cnfg.
h"
   98 00000000         
   99 00000000         #line   985              ".\\MQXLITE\\include\\mqx_cnfg.
h"
  985 00000000         



ARM Macro Assembler    Page 22 


  986 00000000         
  987 00000000         
  988 00000000         #line   35               "MQXLITE\\psp\\cortex_m\\core\\
M0\\dispatch.S"
   35 00000000         #line   1                ".\\MQXLITE\\psp\\cortex_m\\typ
es.inc"
    1 00000000         
    2 00000000         
    3 00000000         
    4 00000000         
    5 00000000         
    6 00000000         
    7 00000000         
    8 00000000         
    9 00000000         
   10 00000000         
   11 00000000         
   12 00000000         
   13 00000000         
   14 00000000         
   15 00000000         
   16 00000000         
   17 00000000         
   18 00000000         
   19 00000000         
   20 00000000         
   21 00000000         
   22 00000000         
   23 00000000         
   24 00000000         
   25 00000000         
   26 00000000         
   27 00000000         
   28 00000000         
   29 00000000         
   30 00000000         
   31 00000000         
   32 00000000         #line   33               ".\\MQXLITE\\psp\\cortex_m\\typ
es.inc"
   33 00000000         
   34 00000000         
   35 00000000         
   36 00000000         
   37 00000000         
   38 00000000 00000000 
                       TD_TD_NEXT
                               EQU              0
   39 00000000 00000004 
                       TD_TD_PREV
                               EQU              4
   40 00000000 00000008 
                       TD_STATE
                               EQU              8
   41 00000000 0000000C 
                       TD_TASK_ID
                               EQU              12
   42 00000000 00000010 
                       TD_STACK_BASE
                               EQU              16



ARM Macro Assembler    Page 23 


   43 00000000 00000014 
                       TD_STACK_PTR
                               EQU              20
   44 00000000 00000018 
                       TD_STACK_LIMIT
                               EQU              24
   45 00000000 0000001C 
                       TD_MY_QUEUE
                               EQU              28
   46 00000000 00000020 
                       TD_HOME_QUEUE
                               EQU              32
   47 00000000 00000024 
                       TD_TASK_SR
                               EQU              36
   48 00000000 00000026 
                       TD_RESERVED_1
                               EQU              38
   49 00000000 00000028 
                       TD_FLAGS
                               EQU              40
   50 00000000 00000034 
                       TD_FLOAT_CONTEXT_PTR
                               EQU              52
   51 00000000         
   52 00000000         
   53 00000000         
   54 00000000         
   55 00000000 00000000 
                       RQ_HEAD_READY_Q
                               EQU              0
   56 00000000 00000004 
                       RQ_TAIL_READY_Q
                               EQU              4
   57 00000000 00000008 
                       RQ_NEXT_Q
                               EQU              8
   58 00000000 0000000C 
                       RQ_ENABLE_SR
                               EQU              12
   59 00000000 0000000E 
                       RQ_PRIORITY
                               EQU              14
   60 00000000         
   61 00000000         
   62 00000000         
   63 00000000         
   64 00000000 00000000 
                       IT_APP_ISR
                               EQU              0
   65 00000000 00000004 
                       IT_APP_ISR_EXCEPTION_HANDLER
                               EQU              4
   66 00000000 00000008 
                       IT_APP_ISR_DATA
                               EQU              8
   67 00000000         
   68 00000000 00000000 
                       HASH_ISR_NUM



ARM Macro Assembler    Page 24 


                               EQU              0
   69 00000000 00000004 
                       HASH_ISR_ADDR
                               EQU              4
   70 00000000 00000008 
                       HASH_ISR_EXCEPT_HNDL
                               EQU              8
   71 00000000 0000000C 
                       HASH_ISR_DATA
                               EQU              12
   72 00000000 00000010 
                       HASH_ISR_NEXT
                               EQU              16
   73 00000000         
   74 00000000         
   75 00000000         
   76 00000000         
   77 00000000 00000000 
                       KD_ADDRESSING_CAPABILITY
                               EQU              0
   78 00000000 00000004 
                       KD_ENDIANESS
                               EQU              4
   79 00000000 00000008 
                       KD_CPU_TYPE
                               EQU              8
   80 00000000 0000000A 
                       KD_PSP_CFG_MEMORY_ALIGNMENT
                               EQU              10
   81 00000000 0000000C 
                       KD_PSP_CFG_STACK_ALIGNMENT
                               EQU              12
   82 00000000 0000000E 
                       KD_PSP_CFG_MEM_STOREBLOCK_ALIGNMENT
                               EQU              14
   83 00000000 00000010 
                       KD_CONFIG1
                               EQU              16
   84 00000000 00000012 
                       KD_CONFIG2
                               EQU              18
   85 00000000 00000014 
                       KD_FLAGS
                               EQU              20
   86 00000000 00000016 
                       KD_DISABLE_SR
                               EQU              22
   87 00000000 00000018 
                       KD_IN_ISR
                               EQU              24
   88 00000000 0000001A 
                       KD_ACTIVE_SR
                               EQU              26
   89 00000000 0000001C 
                       KD_ACTIVE_PTR
                               EQU              28
   90 00000000 00000020 
                       KD_READY_Q_LIST
                               EQU              32



ARM Macro Assembler    Page 25 


   91 00000000 00000024 
                       KD_CURRENT_READY_Q
                               EQU              36
   92 00000000 00000028 
                       KD_DEFAULT_ISR
                               EQU              40
   93 00000000 0000002C 
                       KD_FIRST_USER_ISR_VECTOR
                               EQU              44
   94 00000000 00000030 
                       KD_LAST_USER_ISR_VECTOR
                               EQU              48
   95 00000000 00000034 
                       KD_INTERRUPT_CONTEXT_PTR
                               EQU              52
   96 00000000 00000038 
                       KD_INTERRUPT_TABLE_PTR
                               EQU              56
   97 00000000 0000003C 
                       KD_INTERRUPT_STACK_PTR
                               EQU              60
   98 00000000         
   99 00000000 00000040 
                       KD_LOG_CONTROL
                               EQU              64
  100 00000000 00000044 
                       KD_LOG_OLD_TD
                               EQU              68
  101 00000000 00000048 
                       KD_FP_ACTIVE_PTR
                               EQU              72
  102 00000000 0000004C 
                       KD_DSP_ACTIVE_PTR
                               EQU              76
  103 00000000 00000050 
                       KD_SYSTEM_TD
                               EQU              80
  104 00000000         
  105 00000000         #line   36               "MQXLITE\\psp\\cortex_m\\core\\
M0\\dispatch.S"
   36 00000000         #line   1                "MQXLITE\\psp\\cortex_m\\core\\
M0\\psp_prv.inc"
    1 00000000         
    2 00000000         
    3 00000000         
    4 00000000         
    5 00000000         
    6 00000000         
    7 00000000         
    8 00000000         
    9 00000000         
   10 00000000         
   11 00000000         
   12 00000000         
   13 00000000         
   14 00000000         
   15 00000000         
   16 00000000         
   17 00000000         



ARM Macro Assembler    Page 26 


   18 00000000         
   19 00000000         
   20 00000000         
   21 00000000         
   22 00000000         
   23 00000000         
   24 00000000         
   25 00000000         
   26 00000000         
   27 00000000         
   28 00000000         
   29 00000000         
   30 00000000         
   31 00000000         
   32 00000000         #line   33               "MQXLITE\\psp\\cortex_m\\core\\
M0\\psp_prv.inc"
   33 00000000         #line   34               "MQXLITE\\psp\\cortex_m\\core\\
M0\\psp_prv.inc"
   34 00000000         
   35 00000000         
   36 00000000         
   37 00000000         
   38 00000000         
   39 00000000         #line   47               "MQXLITE\\psp\\cortex_m\\core\\
M0\\psp_prv.inc"
   47 00000000                 EXTERN           _mqx_kernel_data
   48 00000000                 EXTERN           _mqx_system_stack
   49 00000000         
   50 00000000                 EXTERN           _psp_irq_sp
   51 00000000                 EXTERN           _psp_fiq_sp
   52 00000000                 EXTERN           _psp_undef_sp
   53 00000000                 EXTERN           _psp_abort_sp
   54 00000000         
   55 00000000         
   56 00000000         
   57 00000000         
   58 00000000         
   59 00000000         
   60 00000000         
   61 00000000         
   62 00000000         
   63 00000000         
   64 00000000 00008000 
                       PSP_CNFG_MQX_KERNEL_LOGGING
                               EQU              0x8000
   65 00000000 00004000 
                       PSP_CNFG_FP_REGISTERS_EXIST
                               EQU              0x4000
   66 00000000         
   67 00000000         
   68 00000000         
   69 00000000         
   70 00000000         
   71 00000000         #line   81               "MQXLITE\\psp\\cortex_m\\core\\
M0\\psp_prv.inc"
   81 00000000 00000000 
                       PSP_CNFG
                               EQU              0
   82 00000000         



ARM Macro Assembler    Page 27 


   83 00000000         
   84 00000000         
   85 00000000         
   86 00000000         
   87 00000000         
   88 00000000         
   89 00000000         
   90 00000000         
   91 00000000 00000002 
                       FP_TASK_MASK
                               EQU              0x0002
   92 00000000 00000200 
                       FP_CONTEXT_SAVED_MASK
                               EQU              0x0200
   93 00000000 0000FDFF 
                       FP_CONTEXT_CLEAR_MASK
                               EQU              0xfdff
   94 00000000 00001000 
                       PREEMPTION_DISABLED
                               EQU              0x1000
   95 00000000         
   96 00000000         
   97 00000000         
   98 00000000         
   99 00000000         #line   155              "MQXLITE\\psp\\cortex_m\\core\\
M0\\psp_prv.inc"
  155 00000000         
  156 00000000         
  157 00000000                 MACRO
  158 00000000                 GET_KERNEL_DATA  $reg
  159 00000000                 ldr              $reg, =_mqx_kernel_data
  160 00000000                 ldr              $reg, [$reg, #0]
  161 00000000                 MEND
  162 00000000         
  163 00000000                 MACRO
  164 00000000                 SET_FUNCTION_ALIGNMENT
  165 00000000                 ALIGN            2
  166 00000000                 MEND
  167 00000000         
  168 00000000                 MACRO
  169 00000000                 KLOG             $KDATA, $KLOG_FUNCTION
  170 00000000         #line   183              "MQXLITE\\psp\\cortex_m\\core\\
M0\\psp_prv.inc"
  183 00000000                 MEND
  184 00000000         
  185 00000000         
  186 00000000         
  187 00000000                 MACRO
  188 00000000                 STORE_ALL_REGISTERS
  189 00000000                 push             {r0-r7}
  190 00000000                 mov              r0, r8
  191 00000000                 mov              r1, r9
  192 00000000                 mov              r2, r10
  193 00000000                 mov              r3, r11
  194 00000000                 push             {r0-r3}
  195 00000000                 push             {r4-r7}
  196 00000000                 mrs              r4, PRIMASK
  197 00000000                 push             {r4}
  198 00000000                 mrs              r1, PSP



ARM Macro Assembler    Page 28 


  199 00000000         
  200 00000000                 mrs              r5, APSR
  201 00000000                 ldr              r6, =0x01000000
  202 00000000                 orrs             r5, r5, r6
  203 00000000                 mov              r2, r12
  204 00000000                 mov              r3, lr
  205 00000000                 mov              r4, lr
  206 00000000                 mov              r0, r1
  207 00000000                 adds             r0, r0, #52
  208 00000000                 stm              r0!, {r2-r5}
  209 00000000                 MEND
  210 00000000         
  211 00000000         #line   37               "MQXLITE\\psp\\cortex_m\\core\\
M0\\dispatch.S"
   37 00000000         
   38 00000000         
   39 00000000         
   40 00000000         #line   1                ".\\MQXLITE\\psp\\cortex_m\\psp
_cpu.h"
    1 00000000         
    2 00000000         
    3 00000000         
    4 00000000         
    5 00000000         
    6 00000000         
    7 00000000         
    8 00000000         
    9 00000000         
   10 00000000         
   11 00000000         
   12 00000000         
   13 00000000         
   14 00000000         
   15 00000000         
   16 00000000         
   17 00000000         
   18 00000000         
   19 00000000         
   20 00000000         
   21 00000000         
   22 00000000         
   23 00000000         
   24 00000000         
   25 00000000         
   26 00000000         
   27 00000000         
   28 00000000         
   29 00000000         
   30 00000000         
   31 00000000         
   32 00000000         
   33 00000000         
   34 00000000         
   35 00000000         
   36 00000000         #line   1                ".\\MQXLITE\\psp\\cortex_m\\psp
_cpudef.h"
    1 00000000         
    2 00000000         
    3 00000000         



ARM Macro Assembler    Page 29 


    4 00000000         
    5 00000000         
    6 00000000         
    7 00000000         
    8 00000000         
    9 00000000         
   10 00000000         
   11 00000000         
   12 00000000         
   13 00000000         
   14 00000000         
   15 00000000         
   16 00000000         
   17 00000000         
   18 00000000         
   19 00000000         
   20 00000000         
   21 00000000         
   22 00000000         
   23 00000000         
   24 00000000         
   25 00000000         
   26 00000000         
   27 00000000         
   28 00000000         
   29 00000000         
   30 00000000         
   31 00000000         
   32 00000000         
   33 00000000         
   34 00000000         #line   1                ".\\MQXLITE\\include\\mqx_cpude
f.h"
    1 00000000         
    2 00000000         
    3 00000000         
    4 00000000         
    5 00000000         
    6 00000000         
    7 00000000         
    8 00000000         
    9 00000000         
   10 00000000         
   11 00000000         
   12 00000000         
   13 00000000         
   14 00000000         
   15 00000000         
   16 00000000         
   17 00000000         
   18 00000000         
   19 00000000         
   20 00000000         
   21 00000000         
   22 00000000         
   23 00000000         
   24 00000000         
   25 00000000         
   26 00000000         
   27 00000000         



ARM Macro Assembler    Page 30 


   28 00000000         
   29 00000000         
   30 00000000         
   31 00000000         
   32 00000000         
   33 00000000         
   34 00000000         
   35 00000000         #line   41               ".\\MQXLITE\\include\\mqx_cpude
f.h"
   41 00000000         
   42 00000000         
   43 00000000         
   44 00000000         
   45 00000000         
   46 00000000         
   47 00000000         
   48 00000000         
   49 00000000         
   50 00000000         
   51 00000000         
   52 00000000         
   53 00000000         
   54 00000000         #line   61               ".\\MQXLITE\\include\\mqx_cpude
f.h"
   61 00000000         
   62 00000000         
   63 00000000         
   64 00000000         
   65 00000000         
   66 00000000         
   67 00000000         
   68 00000000         
   69 00000000         
   70 00000000         
   71 00000000         
   72 00000000         
   73 00000000         
   74 00000000         
   75 00000000         #line   35               ".\\MQXLITE\\psp\\cortex_m\\psp
_cpudef.h"
   35 00000000         
   36 00000000         
   37 00000000         #line   44               ".\\MQXLITE\\psp\\cortex_m\\psp
_cpudef.h"
   44 00000000         
   45 00000000         
   46 00000000         
   47 00000000         
   48 00000000         
   49 00000000         
   50 00000000         
   51 00000000         
   52 00000000         
   53 00000000         #line   60               ".\\MQXLITE\\psp\\cortex_m\\psp
_cpudef.h"
   60 00000000         
   61 00000000         
   62 00000000         
   63 00000000         #line   70               ".\\MQXLITE\\psp\\cortex_m\\psp



ARM Macro Assembler    Page 31 


_cpudef.h"
   70 00000000         
   71 00000000         
   72 00000000         
   73 00000000         
   74 00000000         
   75 00000000         
   76 00000000         
   77 00000000         
   78 00000000         
   79 00000000         #line   86               ".\\MQXLITE\\psp\\cortex_m\\psp
_cpudef.h"
   86 00000000         
   87 00000000         
   88 00000000         
   89 00000000         #line   96               ".\\MQXLITE\\psp\\cortex_m\\psp
_cpudef.h"
   96 00000000         
   97 00000000         
   98 00000000         
   99 00000000         
  100 00000000         
  101 00000000         
  102 00000000         
  103 00000000         
  104 00000000         
  105 00000000         
  106 00000000         #line   113              ".\\MQXLITE\\psp\\cortex_m\\psp
_cpudef.h"
  113 00000000         
  114 00000000         
  115 00000000         
  116 00000000         #line   123              ".\\MQXLITE\\psp\\cortex_m\\psp
_cpudef.h"
  123 00000000         
  124 00000000         
  125 00000000         
  126 00000000         
  127 00000000         
  128 00000000         
  129 00000000         
  130 00000000         #line   137              ".\\MQXLITE\\psp\\cortex_m\\psp
_cpudef.h"
  137 00000000         
  138 00000000         
  139 00000000         #line   37               ".\\MQXLITE\\psp\\cortex_m\\psp
_cpu.h"
   37 00000000         
   38 00000000         
   39 00000000         
   40 00000000         
   41 00000000         
   42 00000000         #line   1                ".\\MQXLITE\\psp\\cortex_m\\kin
etis.h"
    1 00000000         
    2 00000000         
    3 00000000         
    4 00000000         
    5 00000000         



ARM Macro Assembler    Page 32 


    6 00000000         
    7 00000000         
    8 00000000         
    9 00000000         
   10 00000000         
   11 00000000         
   12 00000000         
   13 00000000         
   14 00000000         
   15 00000000         
   16 00000000         
   17 00000000         
   18 00000000         
   19 00000000         
   20 00000000         
   21 00000000         
   22 00000000         
   23 00000000         
   24 00000000         
   25 00000000         
   26 00000000         
   27 00000000         
   28 00000000         
   29 00000000         
   30 00000000         
   31 00000000         
   32 00000000         
   33 00000000         
   34 00000000         
   35 00000000         #line   41               ".\\MQXLITE\\psp\\cortex_m\\kin
etis.h"
   41 00000000         
   42 00000000         
   43 00000000         
   44 00000000         
   45 00000000         
   46 00000000         
   47 00000000         
   48 00000000         
   49 00000000         
   50 00000000         
   51 00000000         
   52 00000000         
   53 00000000         
   54 00000000         
   55 00000000         
   56 00000000         
   57 00000000         
   58 00000000         
   59 00000000         
   60 00000000         
   61 00000000         
   62 00000000         
   63 00000000         
   64 00000000         
   65 00000000         
   66 00000000         
   67 00000000         
   68 00000000         



ARM Macro Assembler    Page 33 


   69 00000000         
   70 00000000         
   71 00000000         
   72 00000000         
   73 00000000         
   74 00000000         #line   113              ".\\MQXLITE\\psp\\cortex_m\\kin
etis.h"
  113 00000000         
  114 00000000         
  115 00000000         
  116 00000000         
  117 00000000         
  118 00000000         #line   43               ".\\MQXLITE\\psp\\cortex_m\\psp
_cpu.h"
   43 00000000         #line   1                ".\\MQXLITE\\psp\\cortex_m\\cor
tex.h"
    1 00000000         
    2 00000000         
    3 00000000         
    4 00000000         
    5 00000000         
    6 00000000         
    7 00000000         
    8 00000000         
    9 00000000         
   10 00000000         
   11 00000000         
   12 00000000         
   13 00000000         
   14 00000000         
   15 00000000         
   16 00000000         
   17 00000000         
   18 00000000         
   19 00000000         
   20 00000000         
   21 00000000         
   22 00000000         
   23 00000000         
   24 00000000         
   25 00000000         
   26 00000000         
   27 00000000         
   28 00000000         
   29 00000000         
   30 00000000         
   31 00000000         
   32 00000000         
   33 00000000         
   34 00000000         
   35 00000000         
   36 00000000         
   37 00000000         
   38 00000000         
   39 00000000         
   40 00000000         
   41 00000000         
   42 00000000         
   43 00000000         #line   64               ".\\MQXLITE\\psp\\cortex_m\\cor



ARM Macro Assembler    Page 34 


tex.h"
   64 00000000         
   65 00000000         
   66 00000000         
   67 00000000         
   68 00000000         
   69 00000000         
   70 00000000         
   71 00000000         
   72 00000000         
   73 00000000         
   74 00000000         
   75 00000000         
   76 00000000         
   77 00000000         
   78 00000000         
   79 00000000         
   80 00000000         
   81 00000000         
   82 00000000         
   83 00000000         
   84 00000000         
   85 00000000         
   86 00000000         
   87 00000000         
   88 00000000         
   89 00000000         
   90 00000000         
   91 00000000         
   92 00000000         
   93 00000000         
   94 00000000         
   95 00000000         
   96 00000000         
   97 00000000         
   98 00000000         
   99 00000000         
  100 00000000         
  101 00000000         
  102 00000000         
  103 00000000         
  104 00000000         
  105 00000000         
  106 00000000         
  107 00000000         
  108 00000000         
  109 00000000         
  110 00000000         
  111 00000000         
  112 00000000         
  113 00000000         
  114 00000000         
  115 00000000         
  116 00000000         
  117 00000000         
  118 00000000         
  119 00000000         
  120 00000000         
  121 00000000         



ARM Macro Assembler    Page 35 


  122 00000000         
  123 00000000         
  124 00000000         
  125 00000000         
  126 00000000         
  127 00000000         
  128 00000000         
  129 00000000         
  130 00000000         
  131 00000000         
  132 00000000         
  133 00000000         
  134 00000000         
  135 00000000         
  136 00000000         
  137 00000000         
  138 00000000         
  139 00000000         
  140 00000000         
  141 00000000         
  142 00000000         
  143 00000000         
  144 00000000         
  145 00000000         
  146 00000000         
  147 00000000         
  148 00000000         
  149 00000000         
  150 00000000         
  151 00000000         
  152 00000000         
  153 00000000         
  154 00000000         
  155 00000000         
  156 00000000         
  157 00000000         
  158 00000000         
  159 00000000         #line   170              ".\\MQXLITE\\psp\\cortex_m\\cor
tex.h"
  170 00000000         
  171 00000000         
  172 00000000         #line   507              ".\\MQXLITE\\psp\\cortex_m\\cor
tex.h"
  507 00000000         
  508 00000000         
  509 00000000         
  510 00000000         
  511 00000000         
  512 00000000         
  513 00000000         
  514 00000000         #line   44               ".\\MQXLITE\\psp\\cortex_m\\psp
_cpu.h"
   44 00000000         
   45 00000000         
   46 00000000         
   47 00000000         
   48 00000000         
   49 00000000         #line   44               "MQXLITE\\psp\\cortex_m\\core\\
M0\\dispatch.S"



ARM Macro Assembler    Page 36 


   44 00000000         
   45 00000000         
   46 00000000         #line   1                ".\\MQXLITE\\include\\mqxlite_p
rv.h"
    1 00000000         
    2 00000000         
    3 00000000         
    4 00000000         
    5 00000000         
    6 00000000         
    7 00000000         
    8 00000000         
    9 00000000         
   10 00000000         
   11 00000000         
   12 00000000         
   13 00000000         
   14 00000000         
   15 00000000         
   16 00000000         
   17 00000000         
   18 00000000         
   19 00000000         
   20 00000000         
   21 00000000         
   22 00000000         
   23 00000000         
   24 00000000         
   25 00000000         
   26 00000000         
   27 00000000         
   28 00000000         
   29 00000000         
   30 00000000         
   31 00000000         
   32 00000000         
   33 00000000         
   34 00000000         
   35 00000000         
   36 00000000         
   37 00000000         
   38 00000000         
   39 00000000         
   40 00000000         
   41 00000000         
   42 00000000         
   43 00000000         
   44 00000000         
   45 00000000         
   46 00000000         
   47 00000000         
   48 00000000         
   49 00000000         
   50 00000000         
   51 00000000         
   52 00000000         
   53 00000000         #line   69               ".\\MQXLITE\\include\\mqxlite_p
rv.h"
   69 00000000         



ARM Macro Assembler    Page 37 


   70 00000000         #line   79               ".\\MQXLITE\\include\\mqxlite_p
rv.h"
   79 00000000         
   80 00000000         
   81 00000000         #line   116              ".\\MQXLITE\\include\\mqxlite_p
rv.h"
  116 00000000         
  117 00000000         
  118 00000000         
  119 00000000         
  120 00000000         
  121 00000000         
  122 00000000         
  123 00000000         
  124 00000000         
  125 00000000         
  126 00000000         
  127 00000000         
  128 00000000         
  129 00000000         
  130 00000000         
  131 00000000         
  132 00000000         
  133 00000000         
  134 00000000         
  135 00000000         
  136 00000000         
  137 00000000         
  138 00000000         
  139 00000000         
  140 00000000         
  141 00000000         
  142 00000000         
  143 00000000         
  144 00000000         
  145 00000000         
  146 00000000         
  147 00000000         
  148 00000000         
  149 00000000         
  150 00000000         
  151 00000000         
  152 00000000         
  153 00000000         
  154 00000000         
  155 00000000         
  156 00000000         
  157 00000000         
  158 00000000         
  159 00000000         
  160 00000000         
  161 00000000         
  162 00000000         
  163 00000000         
  164 00000000         
  165 00000000         
  166 00000000         
  167 00000000         
  168 00000000         



ARM Macro Assembler    Page 38 


  169 00000000         
  170 00000000         
  171 00000000         
  172 00000000         
  173 00000000         
  174 00000000         
  175 00000000         
  176 00000000         
  177 00000000         
  178 00000000         
  179 00000000         
  180 00000000         
  181 00000000         
  182 00000000         #line   1875             ".\\MQXLITE\\include\\mqxlite_p
rv.h"
 1875 00000000         
 1876 00000000         
 1877 00000000         
 1878 00000000         #line   47               "MQXLITE\\psp\\cortex_m\\core\\
M0\\dispatch.S"
   47 00000000         
   48 00000000         
   49 00000000 000000AA 
                       SVC_MQX_FN
                               EQU              0xaa
   50 00000000         
   51 00000000                 EXTERN           _mqx_kernel_data
   52 00000000                 EXTERN           _klog_isr_start_internal
   53 00000000                 EXTERN           _klog_isr_end_internal
   54 00000000                 EXTERN           _mqx_api_call_handler
   55 00000000         
   56 00000000                 AREA             |KERNEL|, CODE
   57 00000000                 SET_FUNCTION_ALIGNMENT
  165 00000000                 ALIGN            2
   58 00000000         
   59 00000000         
   60 00000000                 EXPORT           _sched_start_internal
   61 00000000                 EXPORT           _sched_run_internal
   62 00000000                 EXPORT           _sched_check_scheduler_internal
   63 00000000                 EXPORT           _sched_execute_scheduler_intern
al
   64 00000000         
   65 00000000                 EXPORT           _task_block
   66 00000000                 EXPORT           _int_kernel_isr
   67 00000000         
   68 00000000                 EXPORT           _mqx_api_call
   69 00000000         
   70 00000000                 EXPORT           _mem_test_and_set
   71 00000000                 EXPORT           __get_PSP
   72 00000000                 EXPORT           __get_MSP
   73 00000000                 EXPORT           __get_PSR
   74 00000000                 EXPORT           __set_MSP
   75 00000000         
   76 00000000                 EXPORT           _psp_exception_return
   77 00000000         
   78 00000000         
   79 00000000         
   80 00000000         
   81 00000000         



ARM Macro Assembler    Page 39 


   82 00000000         
   83 00000000         
   84 00000000         
   85 00000000         
   86 00000000         
   87 00000000         
   88 00000000         
   89 00000000         _sched_start_internal
   90 00000000                 GET_KERNEL_DATA  r0
  159 00000000 4896            ldr              r0, =_mqx_kernel_data
  160 00000002 6800            ldr              r0, [r0, #0]
   91 00000004 E029            b                sched_internal
   92 00000006         
   93 00000006         
   94 00000006         
   95 00000006         
   96 00000006         
   97 00000006         
   98 00000006         _sched_run_internal
   99 00000006                 GET_KERNEL_DATA  r0
  159 00000006 4895            ldr              r0, =_mqx_kernel_data
  160 00000008 6800            ldr              r0, [r0, #0]
  100 0000000A E026            b                sched_internal
  101 0000000C         
  102 0000000C         
  103 0000000C         
  104 0000000C         
  105 0000000C         
  106 0000000C         
  107 0000000C         _sched_check_scheduler_internal
  108 0000000C                 GET_KERNEL_DATA  r0
  159 0000000C 4893            ldr              r0, =_mqx_kernel_data
  160 0000000E 6800            ldr              r0, [r0, #0]
  109 00000010         
  110 00000010 8B01            ldrh             r1, [r0, #KD_IN_ISR]
  111 00000012 2900            cmp              r1, #0
  112 00000014 D105            bne              _sched_check_scheduler_internal
_end
  113 00000016         
  114 00000016 6A41            ldr              r1, [r0, #KD_CURRENT_READY_Q]
  115 00000018 69C2            ldr              r2, [r0, #KD_ACTIVE_PTR]
  116 0000001A 69D3            ldr              r3, [r2, #TD_MY_QUEUE]
  117 0000001C 4299            cmp              r1, r3
  118 0000001E         
  119 0000001E         
  120 0000001E D000            beq              _sched_check_scheduler_internal
_end
  121 00000020         
  122 00000020         #line   135              "MQXLITE\\psp\\cortex_m\\core\\
M0\\dispatch.S"
  135 00000020 E7FE            b                _sched_execute_scheduler_intern
al
  136 00000022         
  137 00000022         _sched_check_scheduler_internal_end
  138 00000022 4770            bx               lr
  139 00000024         
  140 00000024         
  141 00000024         
  142 00000024         



ARM Macro Assembler    Page 40 


  143 00000024         
  144 00000024         
  145 00000024         
  146 00000024         
  147 00000024         
  148 00000024         
  149 00000024         
  150 00000024         
  151 00000024         _sched_execute_scheduler_internal
  152 00000024         #line   166              "MQXLITE\\psp\\cortex_m\\core\\
M0\\dispatch.S"
  166 00000024         
  167 00000024         
  168 00000024                 STORE_ALL_REGISTERS
  189 00000024 B4FF            push             {r0-r7}
  190 00000026 4640            mov              r0, r8
  191 00000028 4649            mov              r1, r9
  192 0000002A 4652            mov              r2, r10
  193 0000002C 465B            mov              r3, r11
  194 0000002E B40F            push             {r0-r3}
  195 00000030 B4F0            push             {r4-r7}
  196 00000032 F3EF 8410       mrs              r4, PRIMASK
  197 00000036 B410            push             {r4}
  198 00000038 F3EF 8109       mrs              r1, PSP
  199 0000003C         
  200 0000003C F3EF 8500       mrs              r5, APSR
  201 00000040 4E87            ldr              r6, =0x01000000
  202 00000042 4335            orrs             r5, r5, r6
  203 00000044 4662            mov              r2, r12
  204 00000046 4673            mov              r3, lr
  205 00000048 4674            mov              r4, lr
  206 0000004A 4608            mov              r0, r1
  207 0000004C 3034            adds             r0, r0, #52
  208 0000004E C03C            stm              r0!, {r2-r5}
  169 00000050         
  170 00000050 B672            cpsid            i
  171 00000052         
  172 00000052                 GET_KERNEL_DATA  r0
  159 00000052 4882            ldr              r0, =_mqx_kernel_data
  160 00000054 6800            ldr              r0, [r0, #0]
  173 00000056 69C3            ldr              r3, [r0, #KD_ACTIVE_PTR]
  174 00000058 6159            str              r1, [r3, #TD_STACK_PTR]
  175 0000005A         
  176 0000005A         
  177 0000005A         
  178 0000005A         
  179 0000005A         
  180 0000005A         sched_internal
  181 0000005A 6A41            ldr              r1, [r0, #KD_CURRENT_READY_Q]
  182 0000005C         find_noempty_que
  183 0000005C 680A            ldr              r2, [r1, #0]
  184 0000005E 428A            cmp              r2, r1
  185 00000060 D107            bne              switch_task
  186 00000062 6889            ldr              r1, [r1, #RQ_NEXT_Q]
  187 00000064 0009            movs             r1, r1
  188 00000066 D1F9            bne              find_noempty_que
  189 00000068         
  190 00000068         
  191 00000068         no_one_to_run



ARM Macro Assembler    Page 41 


  192 00000068         
  193 00000068 B662            cpsie            i
  194 0000006A BF30            wfi
  195 0000006C B672            cpsid            i
  196 0000006E         
  197 0000006E         
  198 0000006E 6A01            ldr              r1, [r0, #KD_READY_Q_LIST]
  199 00000070 E7F4            b                find_noempty_que
  200 00000072         
  201 00000072         switch_task
  202 00000072         
  203 00000072 6241            str              r1, [r0, #KD_CURRENT_READY_Q]
  204 00000074 61C2            str              r2, [r0, #KD_ACTIVE_PTR]
  205 00000076         
  206 00000076 8C93            ldrh             r3, [r2, #TD_TASK_SR]
  207 00000078 8343            strh             r3, [r0, #KD_ACTIVE_SR]
  208 0000007A         
  209 0000007A         
  210 0000007A         
  211 0000007A         
  212 0000007A         
  213 0000007A         
  214 0000007A         
  215 0000007A         
  216 0000007A         
  217 0000007A         
  218 0000007A         
  219 0000007A 6950            ldr              r0, [r2, #TD_STACK_PTR]
  220 0000007C 4601            mov              r1, r0
  221 0000007E 3124            adds             r1, r1, #36
  222 00000080 468C            mov              r12, r1
  223 00000082         
  224 00000082 1D00            adds             r0, r0, #4
  225 00000084 C8FE            ldm              r0!, {r1-r7}
  226 00000086 46BA            mov              r10, r7
  227 00000088 46B1            mov              r9, r6
  228 0000008A 46A8            mov              r8, r5
  229 0000008C 4627            mov              r7, r4
  230 0000008E 461E            mov              r6, r3
  231 00000090 4615            mov              r5, r2
  232 00000092 460C            mov              r4, r1
  233 00000094         
  234 00000094 C802            ldm              r0!, {r1}
  235 00000096 468B            mov              r11, r1
  236 00000098         
  237 00000098 F3EF 8114       mrs              r1, CONTROL
  238 0000009C 2900            cmp              r1, #0
  239 0000009E D107            bne              rest_of_stack_frame_restore
  240 000000A0         return_from_interrupt
  241 000000A0         
  242 000000A0 4661            mov              r1, r12
  243 000000A2 F381 8809       msr              PSP, r1
  244 000000A6         
  245 000000A6 3924            subs             r1, r1, #36
  246 000000A8 C904            ldm              r1!, {r2}
  247 000000AA F382 8810       msr              PRIMASK, r2
  248 000000AE         
  249 000000AE BD00            pop              {pc}
  250 000000B0         



ARM Macro Assembler    Page 42 


  251 000000B0         rest_of_stack_frame_restore
  252 000000B0         
  253 000000B0 4661            mov              r1, r12
  254 000000B2 3120            adds             r1, r1, #32
  255 000000B4 F381 8809       msr              PSP, r1
  256 000000B8 3010            adds             r0, r0, #16
  257 000000BA         
  258 000000BA C80E            ldm              r0!, {r1-r3}
  259 000000BC 468C            mov              r12, r1
  260 000000BE 4696            mov              lr, r2
  261 000000C0         
  262 000000C0 C802            ldm              r0!, {r1}
  263 000000C2 3820            subs             r0, r0, #32
  264 000000C4         
  265 000000C4         
  266 000000C4 4A67            ldr              r2, =0x200
  267 000000C6 400A            ands             r2, r1, r2
  268 000000C8 D004            beq              move_pc_at_the_start_of_stackfr
ame
  269 000000CA F3EF 8209       mrs              r2, PSP
  270 000000CE 1D12            adds             r2, r2, #4
  271 000000D0 F382 8809       msr              PSP, r2
  272 000000D4         move_pc_at_the_start_of_stackframe
  273 000000D4 4602            mov              r2, r0
  274 000000D6 3A24            subs             r2, r2, #36
  275 000000D8         
  276 000000D8 F381 8800       msr              APSR, r1
  277 000000DC         
  278 000000DC B408            push             {r3}
  279 000000DE B410            push             {r4}
  280 000000E0 CA10            ldm              r2!, {r4}
  281 000000E2         
  282 000000E2 C80F            ldm              r0, {r0-r3}
  283 000000E4         
  284 000000E4         #line   295              "MQXLITE\\psp\\cortex_m\\core\\
M0\\dispatch.S"
  295 000000E4         
  296 000000E4 F384 8810       msr              PRIMASK, r4
  297 000000E8 BC10            pop              {r4}
  298 000000EA BD00            pop              {pc}
  299 000000EC         
  300 000000EC         
  301 000000EC         
  302 000000EC         
  303 000000EC         
  304 000000EC         
  305 000000EC         
  306 000000EC         
  307 000000EC         
  308 000000EC         
  309 000000EC         
  310 000000EC         
  311 000000EC         
  312 000000EC         
  313 000000EC         _mqx_api_call
  314 000000EC         
  315 000000EC         
  316 000000EC         
  317 000000EC         



ARM Macro Assembler    Page 43 


  318 000000EC         
  319 000000EC         _mqx_api_call_end
  320 000000EC E7FE            b                _mqx_api_call_end
  321 000000EE         
  322 000000EE         
  323 000000EE         #line   381              "MQXLITE\\psp\\cortex_m\\core\\
M0\\dispatch.S"
  381 000000EE         
  382 000000EE         
  383 000000EE         
  384 000000EE         
  385 000000EE         
  386 000000EE         
  387 000000EE         
  388 000000EE         
  389 000000EE         
  390 000000EE         
  391 000000EE         
  392 000000EE         _task_block
  393 000000EE         
  394 000000EE         
  395 000000EE                 STORE_ALL_REGISTERS
  189 000000EE B4FF            push             {r0-r7}
  190 000000F0 4640            mov              r0, r8
  191 000000F2 4649            mov              r1, r9
  192 000000F4 4652            mov              r2, r10
  193 000000F6 465B            mov              r3, r11
  194 000000F8 B40F            push             {r0-r3}
  195 000000FA B4F0            push             {r4-r7}
  196 000000FC F3EF 8410       mrs              r4, PRIMASK
  197 00000100 B410            push             {r4}
  198 00000102 F3EF 8109       mrs              r1, PSP
  199 00000106         
  200 00000106 F3EF 8500       mrs              r5, APSR
  201 0000010A 4E55            ldr              r6, =0x01000000
  202 0000010C 4335            orrs             r5, r5, r6
  203 0000010E 4662            mov              r2, r12
  204 00000110 4673            mov              r3, lr
  205 00000112 4674            mov              r4, lr
  206 00000114 4608            mov              r0, r1
  207 00000116 3034            adds             r0, r0, #52
  208 00000118 C03C            stm              r0!, {r2-r5}
  396 0000011A         
  397 0000011A B672            cpsid            i
  398 0000011C         
  399 0000011C                 GET_KERNEL_DATA  r0
  159 0000011C 484F            ldr              r0, =_mqx_kernel_data
  160 0000011E 6800            ldr              r0, [r0, #0]
  400 00000120 69C3            ldr              r3, [r0, #KD_ACTIVE_PTR]
  401 00000122 6159            str              r1, [r3, #TD_STACK_PTR]
  402 00000124         
  403 00000124         
  404 00000124         
  405 00000124 689A            ldr              r2, [r3, #TD_STATE]
  406 00000126 2101            movs             r1, #1
  407 00000128 430A            orrs             r2, r2, r1
  408 0000012A 609A            str              r2, [r3, #TD_STATE]
  409 0000012C         
  410 0000012C         



ARM Macro Assembler    Page 44 


  411 0000012C         
  412 0000012C         
  413 0000012C         
  414 0000012C 685A            ldr              r2, [r3, #TD_TD_PREV]
  415 0000012E 6819            ldr              r1, [r3, #TD_TD_NEXT]
  416 00000130 6011            str              r1, [r2, #RQ_HEAD_READY_Q]
  417 00000132 604A            str              r2, [r1, #TD_TD_PREV]
  418 00000134         
  419 00000134 E791            b                sched_internal
  420 00000136         
  421 00000136         
  422 00000136         
  423 00000136         
  424 00000136         
  425 00000136         
  426 00000136         
  427 00000136         
  428 00000136         
  429 00000136         
  430 00000136         
  431 00000136         
  432 00000136         
  433 00000136         
  434 00000136         
  435 00000136         
  436 00000136         _int_kernel_isr
  437 00000136 F3EF 8010       mrs              r0, PRIMASK
  438 0000013A B672            cpsid            i
  439 0000013C B500            push             {lr}
  440 0000013E B401            push             {r0}
  441 00000140         
  442 00000140                 GET_KERNEL_DATA  r3
  159 00000140 4B46            ldr              r3, =_mqx_kernel_data
  160 00000142 681B            ldr              r3, [r3, #0]
  443 00000144         
  444 00000144         
  445 00000144 8B19            ldrh             r1, [r3, #KD_IN_ISR]
  446 00000146 1C49            adds             r1, r1, #1
  447 00000148 8319            strh             r1, [r3, #KD_IN_ISR]
  448 0000014A         
  449 0000014A         
  450 0000014A 4847            ldr              r0, =0
  451 0000014C B401            push             {r0}
  452 0000014E F3EF 8105       mrs              r1, IPSR
  453 00000152 6B58            ldr              r0, [r3, #KD_INTERRUPT_CONTEXT_
PTR]
  454 00000154 B403            push             {r0-r1}
  455 00000156         
  456 00000156 F3EF 8008       mrs              r0, MSP
  457 0000015A 6358            str              r0, [r3, #KD_INTERRUPT_CONTEXT_
PTR]
  458 0000015C         
  459 0000015C 4608            mov              r0, r1
  460 0000015E         
  461 0000015E         #line   472              "MQXLITE\\psp\\cortex_m\\core\\
M0\\dispatch.S"
  472 0000015E         
  473 0000015E         
  474 0000015E         



ARM Macro Assembler    Page 45 


  475 0000015E         
  476 0000015E 6B1A            ldr              r2, [r3, #KD_LAST_USER_ISR_VECT
OR]
  477 00000160         
  478 00000160         
  479 00000160 2A00            cmp              r2, #0
  480 00000162 D100            bne              _isr_skip_run_default1
  481 00000164 E03A            b                _isr_run_default
  482 00000166         _isr_skip_run_default1
  483 00000166         
  484 00000166 4290            cmp              r0, r2
  485 00000168 D838            bhi              _isr_run_default
  486 0000016A         
  487 0000016A 6ADA            ldr              r2, [r3, #KD_FIRST_USER_ISR_VEC
TOR]
  488 0000016C 1A81            subs             r1, r0, r2
  489 0000016E DB35            blt              _isr_run_default
  490 00000170         
  491 00000170         #line   527              "MQXLITE\\psp\\cortex_m\\core\\
M0\\dispatch.S"
  527 00000170         
  528 00000170         _int_kernel_isr_vect_ok
  529 00000170         
  530 00000170         
  531 00000170 220C            movs             r2, #12
  532 00000172 4351            muls             r1, r2, r1
  533 00000174         
  534 00000174 6B9A            ldr              r2, [r3, #KD_INTERRUPT_TABLE_PT
R]
  535 00000176 4411            add              r1, r1, r2
  536 00000178 680A            ldr              r2, [r1, #0]
  537 0000017A 6888            ldr              r0, [r1, #IT_APP_ISR_DATA]
  538 0000017C         
  539 0000017C         
  540 0000017C         _isr_execute
  541 0000017C         
  542 0000017C         
  543 0000017C         
  544 0000017C B662            cpsie            i
  545 0000017E         
  546 0000017E B408            push             {r3}
  547 00000180         
  548 00000180 4790            blx              r2
  549 00000182         
  550 00000182         _int_kernel_isr_epilog
  551 00000182         
  552 00000182 BC08            pop              {r3}
  553 00000184         
  554 00000184 B672            cpsid            i
  555 00000186         
  556 00000186         _int_kernel_isr_return_internal
  557 00000186         
  558 00000186         #line   571              "MQXLITE\\psp\\cortex_m\\core\\
M0\\dispatch.S"
  571 00000186         
  572 00000186         
  573 00000186 BC03            pop              {r0-r1}
  574 00000188 6358            str              r0, [r3, #KD_INTERRUPT_CONTEXT_
PTR]



ARM Macro Assembler    Page 46 


  575 0000018A         
  576 0000018A BC01            pop              {r0}
  577 0000018C         
  578 0000018C         
  579 0000018C 8B19            ldrh             r1, [r3, #KD_IN_ISR]
  580 0000018E 1E49            subs             r1, r1, #1
  581 00000190 8319            strh             r1, [r3, #KD_IN_ISR]
  582 00000192         
  583 00000192 2900            cmp              r1, #0
  584 00000194 D11E            bne              _isr_return_end
  585 00000196         
  586 00000196         
  587 00000196         
  588 00000196 69DA            ldr              r2, [r3, #KD_ACTIVE_PTR]
  589 00000198 6A90            ldr              r0, [r2, #TD_FLAGS]
  590 0000019A 4934            ldr              r1, =(0x1000)
  591 0000019C 4208            tst              r0, r1
  592 0000019E D119            bne              _isr_return_end
  593 000001A0         
  594 000001A0         
  595 000001A0         
  596 000001A0 6A59            ldr              r1, [r3, #KD_CURRENT_READY_Q]
  597 000001A2 6809            ldr              r1, [r1]
  598 000001A4 4291            cmp              r1, r2
  599 000001A6         
  600 000001A6 D015            beq              _isr_return_end
  601 000001A8         
  602 000001A8         
  603 000001A8         
  604 000001A8 F3EF 8109       mrs              r1, PSP
  605 000001AC         
  606 000001AC 3118            adds             r1, r1, #24
  607 000001AE C901            ldm              r1!, {r0}
  608 000001B0 1C40            adds             r0, r0, #1
  609 000001B2 1F09            subs             r1, r1, #4
  610 000001B4 C101            stm              r1!, {r0}
  611 000001B6 3940            subs             r1, r1, #64
  612 000001B8         
  613 000001B8 BC01            pop              {r0}
  614 000001BA C101            stm              r1!, {r0}
  615 000001BC C1F0            stm              r1!, {r4-r7}
  616 000001BE 4642            mov              r2, r8
  617 000001C0 464B            mov              r3, r9
  618 000001C2 4654            mov              r4, r10
  619 000001C4 465D            mov              r5, r11
  620 000001C6 C13C            stm              r1!, {r2-r5}
  621 000001C8 3924            subs             r1, r1, #36
  622 000001CA         
  623 000001CA         
  624 000001CA                 GET_KERNEL_DATA  r0
  159 000001CA 4824            ldr              r0, =_mqx_kernel_data
  160 000001CC 6800            ldr              r0, [r0, #0]
  625 000001CE 69C3            ldr              r3, [r0, #KD_ACTIVE_PTR]
  626 000001D0 6159            str              r1, [r3, #TD_STACK_PTR]
  627 000001D2         
  628 000001D2 E742            b                sched_internal
  629 000001D4         
  630 000001D4         _isr_return_end
  631 000001D4 BC01            pop              {r0}



ARM Macro Assembler    Page 47 


  632 000001D6 F380 8810       msr              PRIMASK, r0
  633 000001DA BD00            pop              {pc}
  634 000001DC         
  635 000001DC         _isr_run_default
  636 000001DC         
  637 000001DC         
  638 000001DC 6A9A            ldr              r2, [r3, #KD_DEFAULT_ISR]
  639 000001DE         
  640 000001DE E7CD            b                _isr_execute
  641 000001E0         
  642 000001E0         
  643 000001E0         
  644 000001E0         
  645 000001E0         
  646 000001E0         
  647 000001E0         
  648 000001E0         
  649 000001E0         
  650 000001E0         
  651 000001E0         
  652 000001E0         
  653 000001E0         _psp_exception_return
  654 000001E0 B672            cpsid            i
  655 000001E2 B4F7            push             {r0, r1, r2, r4-r7}
  656 000001E4         
  657 000001E4                 GET_KERNEL_DATA  r3
  159 000001E4 4B1D            ldr              r3, =_mqx_kernel_data
  160 000001E6 681B            ldr              r3, [r3, #0]
  658 000001E8         
  659 000001E8         
  660 000001E8 6B5A            ldr              r2, [r3, #KD_INTERRUPT_CONTEXT_
PTR]
  661 000001EA 3210            adds             r2, r2, #16
  662 000001EC         
  663 000001EC 6811            ldr              r1, [r2]
  664 000001EE 468E            mov              lr, r1
  665 000001F0 1D12            adds             r2, r2, #4
  666 000001F2         
  667 000001F2         
  668 000001F2 481F            ldr              r0, =_int_kernel_isr_epilog
  669 000001F4 2101            movs             r1, #1
  670 000001F6 4388            bics             r0, r0, r1
  671 000001F8 6190            str              r0, [r2, #24]
  672 000001FA         
  673 000001FA CAFF            ldmia            r2, {r0-r7}
  674 000001FC 46B8            mov              r8, r7
  675 000001FE         
  676 000001FE BC80            pop              {r7}
  677 00000200         
  678 00000200         
  679 00000200 1F3F            subs             r7, r7, #4
  680 00000202 C77F            stm              r7!, {r0-r6}
  681 00000204 3F1C            subs             r7, r7, #28
  682 00000206 4638            mov              r0, r7
  683 00000208 4647            mov              r7, r8
  684 0000020A C080            stm              r0!, {r7}
  685 0000020C 1F00            subs             r0, r0, #4
  686 0000020E         
  687 0000020E         



ARM Macro Assembler    Page 48 


  688 0000020E BCF6            pop              {r1, r2, r4-r7}
  689 00000210         
  690 00000210 F380 8808       msr              MSP, r0
  691 00000214         
  692 00000214 B662            cpsie            i
  693 00000216         
  694 00000216 4770            bx               lr
  695 00000218         
  696 00000218         
  697 00000218         
  698 00000218         
  699 00000218         
  700 00000218         
  701 00000218         
  702 00000218         
  703 00000218         
  704 00000218         
  705 00000218         
  706 00000218         
  707 00000218         
  708 00000218         
  709 00000218         
  710 00000218         
  711 00000218         
  712 00000218         _mem_test_and_set
  713 00000218 B506            push             {r1, r2, lr}
  714 0000021A         
  715 0000021A 7801            ldrb             r1, [r0]
  716 0000021C 4A15            ldr              r2, =0x80
  717 0000021E 4211            tst              r1, r2
  718 00000220 D103            bne              _mem_test_and_set_0x80
  719 00000222 4311            orrs             r1, r1, r2
  720 00000224 7001            strb             r1, [r0]
  721 00000226 4040            eors             r0, r0
  722 00000228 E000            b                _mem_test_and_set_pop
  723 0000022A         _mem_test_and_set_0x80
  724 0000022A 2080            movs             r0, #0x80
  725 0000022C         
  726 0000022C         _mem_test_and_set_pop
  727 0000022C BD06            pop              {r1, r2, pc}
  728 0000022E         
  729 0000022E         
  730 0000022E         
  731 0000022E         
  732 0000022E         
  733 0000022E         
  734 0000022E         
  735 0000022E         
  736 0000022E         
  737 0000022E         
  738 0000022E         
  739 0000022E         
  740 0000022E         __get_PSP
  741 0000022E F3EF 8009       mrs              r0, PSP
  742 00000232 4770            bx               lr
  743 00000234         
  744 00000234         
  745 00000234         
  746 00000234         



ARM Macro Assembler    Page 49 


  747 00000234         
  748 00000234         
  749 00000234         
  750 00000234         
  751 00000234         
  752 00000234         
  753 00000234         
  754 00000234         
  755 00000234         __get_MSP
  756 00000234 F3EF 8008       mrs              r0, MSP
  757 00000238 4770            bx               lr
  758 0000023A         
  759 0000023A         
  760 0000023A         
  761 0000023A         
  762 0000023A         
  763 0000023A         
  764 0000023A         
  765 0000023A         
  766 0000023A         
  767 0000023A         
  768 0000023A         
  769 0000023A         
  770 0000023A         __set_MSP
  771 0000023A F380 8808       msr              MSP, r0
  772 0000023E 4770            bx               lr
  773 00000240         
  774 00000240         
  775 00000240         
  776 00000240         
  777 00000240         
  778 00000240         
  779 00000240         
  780 00000240         
  781 00000240         
  782 00000240         
  783 00000240         
  784 00000240         
  785 00000240         __get_PSR
  786 00000240         
  787 00000240         
  788 00000240         
  789 00000240 F3EF 8003       mrs              r0, PSR
  790 00000244         
  791 00000244 4770            bx               lr
  792 00000246         
  793 00000246         
  794 00000246         
  795 00000246         
  796 00000246         
  797 00000246         
  798 00000246         
  799 00000246         
  800 00000246         
  801 00000246         
  802 00000246         
  803 00000246         
  804 00000246         
  805 00000246         



ARM Macro Assembler    Page 50 


  806 00000246         
  807 00000246         __enable_interrupt
  808 00000246 B662            cpsie            i
  809 00000248 4770            bx               lr
  810 0000024A         
  811 0000024A         
  812 0000024A         
  813 0000024A         
  814 0000024A         
  815 0000024A         
  816 0000024A         
  817 0000024A         
  818 0000024A         
  819 0000024A         
  820 0000024A         
  821 0000024A         
  822 0000024A         
  823 0000024A         __disable_interrupt
  824 0000024A B672            cpsid            i
  825 0000024C 4770            bx               lr
  826 0000024E         
  827 0000024E         
  828 0000024E         
  829 0000024E                 EXPORT           __get_LR
  830 0000024E                 EXPORT           __get_PC
  831 0000024E                 EXPORT           __enable_interrupt
  832 0000024E                 EXPORT           __disable_interrupt
  833 0000024E         
  834 0000024E         
  835 0000024E         
  836 0000024E         
  837 0000024E         
  838 0000024E         
  839 0000024E         
  840 0000024E         
  841 0000024E         
  842 0000024E         
  843 0000024E         
  844 0000024E         __get_LR
  845 0000024E 4670            mov              r0, lr
  846 00000250 4770            bx               lr
  847 00000252         
  848 00000252         
  849 00000252         
  850 00000252         
  851 00000252         
  852 00000252         
  853 00000252         
  854 00000252         
  855 00000252         
  856 00000252         
  857 00000252         
  858 00000252         
  859 00000252         
  860 00000252         __get_PC
  861 00000252 4678            mov              r0, PC
  862 00000254 4770            bx               lr
  863 00000256         
  864 00000256         



ARM Macro Assembler    Page 51 


  865 00000256         
  866 00000256         
  867 00000256         
  868 00000256         
  869 00000256         
  870 00000256         
  871 00000256         
  872 00000256                 EXPORT           __get_CONTROL
  873 00000256         
  874 00000256         
  875 00000256         __get_CONTROL
  876 00000256 F3EF 8014       mrs              r0, CONTROL
  877 0000025A 4770            bx               lr
  878 0000025C         
  879 0000025C         
  880 0000025C         
  881 0000025C         
  882 0000025C                 ALIGN            4
  883 0000025C                 END
              00000000 
              01000000 
              00000200 
              00000000 
              00001000 
              00000000 
              00000080 
Command Line: --debug --xref --cpreproc --cpu=Cortex-M0+ --apcs=interwork --dep
end=.\uvbuild\dispatch.d -o.\uvbuild\dispatch.o -I.\MQXLITE\include -I.\MQXLITE
\config -I.\MQXLITE\kernel -I.\MQXLITE\psp\cortex_m -I.\MQXLITE\psp\cortex_m\co
re\M0 -I.\MQXLITE\psp\cortex_m\compiler\rv -I.\Static_Code\PDD -I.\Static_Code\
IO_Map -I.\Sources -I.\Generated_Code -I.\Generated_Code -I.\MQXLITE\config -I.
\MQXLITE\kernel -I.\MQXLITE\psp\cortex_m -I.\Project_Settings\Startup_Code -I.\
Sources -I.\MQXLITE\psp\cortex_m\core\M0 -I"E:\FPT Global Sofware Talent\Projec
t2\As14\RTE" -IC:\Keil_v5\ARM\PACK\Keil\Kinetis_KLxx_DFP\1.4.0\Device\Include -
IC:\Keil_v5\ARM\CMSIS\Include --predefine="MKL46Z256xxx4 SETA 1" --list=.\dispa
tch.lst MQXLITE\psp\cortex_m\core\M0\dispatch.S



ARM Macro Assembler    Page 1 Alphabetic symbol ordering
Relocatable symbols

KERNEL 00000000

Symbol: KERNEL
   Definitions
      At line 56 in file MQXLITE\\psp\\cortex_m\\core\\M0\\dispatch.S
   Uses
      None
Comment: KERNEL unused
__disable_interrupt 0000024A

Symbol: __disable_interrupt
   Definitions
      At line 823 in file MQXLITE\\psp\\cortex_m\\core\\M0\\dispatch.S
   Uses
      At line 832 in file MQXLITE\\psp\\cortex_m\\core\\M0\\dispatch.S
Comment: __disable_interrupt used once
__enable_interrupt 00000246

Symbol: __enable_interrupt
   Definitions
      At line 807 in file MQXLITE\\psp\\cortex_m\\core\\M0\\dispatch.S
   Uses
      At line 831 in file MQXLITE\\psp\\cortex_m\\core\\M0\\dispatch.S
Comment: __enable_interrupt used once
__get_CONTROL 00000256

Symbol: __get_CONTROL
   Definitions
      At line 875 in file MQXLITE\\psp\\cortex_m\\core\\M0\\dispatch.S
   Uses
      At line 872 in file MQXLITE\\psp\\cortex_m\\core\\M0\\dispatch.S
Comment: __get_CONTROL used once
__get_LR 0000024E

Symbol: __get_LR
   Definitions
      At line 844 in file MQXLITE\\psp\\cortex_m\\core\\M0\\dispatch.S
   Uses
      At line 829 in file MQXLITE\\psp\\cortex_m\\core\\M0\\dispatch.S
Comment: __get_LR used once
__get_MSP 00000234

Symbol: __get_MSP
   Definitions
      At line 755 in file MQXLITE\\psp\\cortex_m\\core\\M0\\dispatch.S
   Uses
      At line 72 in file MQXLITE\\psp\\cortex_m\\core\\M0\\dispatch.S
Comment: __get_MSP used once
__get_PC 00000252

Symbol: __get_PC
   Definitions
      At line 860 in file MQXLITE\\psp\\cortex_m\\core\\M0\\dispatch.S
   Uses
      At line 830 in file MQXLITE\\psp\\cortex_m\\core\\M0\\dispatch.S
Comment: __get_PC used once
__get_PSP 0000022E

Symbol: __get_PSP



ARM Macro Assembler    Page 2 Alphabetic symbol ordering
Relocatable symbols

   Definitions
      At line 740 in file MQXLITE\\psp\\cortex_m\\core\\M0\\dispatch.S
   Uses
      At line 71 in file MQXLITE\\psp\\cortex_m\\core\\M0\\dispatch.S
Comment: __get_PSP used once
__get_PSR 00000240

Symbol: __get_PSR
   Definitions
      At line 785 in file MQXLITE\\psp\\cortex_m\\core\\M0\\dispatch.S
   Uses
      At line 73 in file MQXLITE\\psp\\cortex_m\\core\\M0\\dispatch.S
Comment: __get_PSR used once
__set_MSP 0000023A

Symbol: __set_MSP
   Definitions
      At line 770 in file MQXLITE\\psp\\cortex_m\\core\\M0\\dispatch.S
   Uses
      At line 74 in file MQXLITE\\psp\\cortex_m\\core\\M0\\dispatch.S
Comment: __set_MSP used once
_int_kernel_isr 00000136

Symbol: _int_kernel_isr
   Definitions
      At line 436 in file MQXLITE\\psp\\cortex_m\\core\\M0\\dispatch.S
   Uses
      At line 66 in file MQXLITE\\psp\\cortex_m\\core\\M0\\dispatch.S
Comment: _int_kernel_isr used once
_int_kernel_isr_epilog 00000182

Symbol: _int_kernel_isr_epilog
   Definitions
      At line 550 in file MQXLITE\\psp\\cortex_m\\core\\M0\\dispatch.S
   Uses
      At line 668 in file MQXLITE\\psp\\cortex_m\\core\\M0\\dispatch.S
Comment: _int_kernel_isr_epilog used once
_int_kernel_isr_return_internal 00000186

Symbol: _int_kernel_isr_return_internal
   Definitions
      At line 556 in file MQXLITE\\psp\\cortex_m\\core\\M0\\dispatch.S
   Uses
      None
Comment: _int_kernel_isr_return_internal unused
_int_kernel_isr_vect_ok 00000170

Symbol: _int_kernel_isr_vect_ok
   Definitions
      At line 528 in file MQXLITE\\psp\\cortex_m\\core\\M0\\dispatch.S
   Uses
      None
Comment: _int_kernel_isr_vect_ok unused
_isr_execute 0000017C

Symbol: _isr_execute
   Definitions
      At line 540 in file MQXLITE\\psp\\cortex_m\\core\\M0\\dispatch.S
   Uses



ARM Macro Assembler    Page 3 Alphabetic symbol ordering
Relocatable symbols

      At line 640 in file MQXLITE\\psp\\cortex_m\\core\\M0\\dispatch.S
Comment: _isr_execute used once
_isr_return_end 000001D4

Symbol: _isr_return_end
   Definitions
      At line 630 in file MQXLITE\\psp\\cortex_m\\core\\M0\\dispatch.S
   Uses
      At line 584 in file MQXLITE\\psp\\cortex_m\\core\\M0\\dispatch.S
      At line 592 in file MQXLITE\\psp\\cortex_m\\core\\M0\\dispatch.S
      At line 600 in file MQXLITE\\psp\\cortex_m\\core\\M0\\dispatch.S

_isr_run_default 000001DC

Symbol: _isr_run_default
   Definitions
      At line 635 in file MQXLITE\\psp\\cortex_m\\core\\M0\\dispatch.S
   Uses
      At line 481 in file MQXLITE\\psp\\cortex_m\\core\\M0\\dispatch.S
      At line 485 in file MQXLITE\\psp\\cortex_m\\core\\M0\\dispatch.S
      At line 489 in file MQXLITE\\psp\\cortex_m\\core\\M0\\dispatch.S

_isr_skip_run_default1 00000166

Symbol: _isr_skip_run_default1
   Definitions
      At line 482 in file MQXLITE\\psp\\cortex_m\\core\\M0\\dispatch.S
   Uses
      At line 480 in file MQXLITE\\psp\\cortex_m\\core\\M0\\dispatch.S
Comment: _isr_skip_run_default1 used once
_mem_test_and_set 00000218

Symbol: _mem_test_and_set
   Definitions
      At line 712 in file MQXLITE\\psp\\cortex_m\\core\\M0\\dispatch.S
   Uses
      At line 70 in file MQXLITE\\psp\\cortex_m\\core\\M0\\dispatch.S
Comment: _mem_test_and_set used once
_mem_test_and_set_0x80 0000022A

Symbol: _mem_test_and_set_0x80
   Definitions
      At line 723 in file MQXLITE\\psp\\cortex_m\\core\\M0\\dispatch.S
   Uses
      At line 718 in file MQXLITE\\psp\\cortex_m\\core\\M0\\dispatch.S
Comment: _mem_test_and_set_0x80 used once
_mem_test_and_set_pop 0000022C

Symbol: _mem_test_and_set_pop
   Definitions
      At line 726 in file MQXLITE\\psp\\cortex_m\\core\\M0\\dispatch.S
   Uses
      At line 722 in file MQXLITE\\psp\\cortex_m\\core\\M0\\dispatch.S
Comment: _mem_test_and_set_pop used once
_mqx_api_call 000000EC

Symbol: _mqx_api_call
   Definitions
      At line 313 in file MQXLITE\\psp\\cortex_m\\core\\M0\\dispatch.S



ARM Macro Assembler    Page 4 Alphabetic symbol ordering
Relocatable symbols

   Uses
      At line 68 in file MQXLITE\\psp\\cortex_m\\core\\M0\\dispatch.S
Comment: _mqx_api_call used once
_mqx_api_call_end 000000EC

Symbol: _mqx_api_call_end
   Definitions
      At line 319 in file MQXLITE\\psp\\cortex_m\\core\\M0\\dispatch.S
   Uses
      At line 320 in file MQXLITE\\psp\\cortex_m\\core\\M0\\dispatch.S
Comment: _mqx_api_call_end used once
_psp_exception_return 000001E0

Symbol: _psp_exception_return
   Definitions
      At line 653 in file MQXLITE\\psp\\cortex_m\\core\\M0\\dispatch.S
   Uses
      At line 76 in file MQXLITE\\psp\\cortex_m\\core\\M0\\dispatch.S
Comment: _psp_exception_return used once
_sched_check_scheduler_internal 0000000C

Symbol: _sched_check_scheduler_internal
   Definitions
      At line 107 in file MQXLITE\\psp\\cortex_m\\core\\M0\\dispatch.S
   Uses
      At line 62 in file MQXLITE\\psp\\cortex_m\\core\\M0\\dispatch.S
Comment: _sched_check_scheduler_internal used once
_sched_check_scheduler_internal_end 00000022

Symbol: _sched_check_scheduler_internal_end
   Definitions
      At line 137 in file MQXLITE\\psp\\cortex_m\\core\\M0\\dispatch.S
   Uses
      At line 112 in file MQXLITE\\psp\\cortex_m\\core\\M0\\dispatch.S
      At line 120 in file MQXLITE\\psp\\cortex_m\\core\\M0\\dispatch.S

_sched_execute_scheduler_internal 00000024

Symbol: _sched_execute_scheduler_internal
   Definitions
      At line 151 in file MQXLITE\\psp\\cortex_m\\core\\M0\\dispatch.S
   Uses
      At line 63 in file MQXLITE\\psp\\cortex_m\\core\\M0\\dispatch.S
      At line 135 in file MQXLITE\\psp\\cortex_m\\core\\M0\\dispatch.S

_sched_run_internal 00000006

Symbol: _sched_run_internal
   Definitions
      At line 98 in file MQXLITE\\psp\\cortex_m\\core\\M0\\dispatch.S
   Uses
      At line 61 in file MQXLITE\\psp\\cortex_m\\core\\M0\\dispatch.S
Comment: _sched_run_internal used once
_sched_start_internal 00000000

Symbol: _sched_start_internal
   Definitions
      At line 89 in file MQXLITE\\psp\\cortex_m\\core\\M0\\dispatch.S
   Uses



ARM Macro Assembler    Page 5 Alphabetic symbol ordering
Relocatable symbols

      At line 60 in file MQXLITE\\psp\\cortex_m\\core\\M0\\dispatch.S
Comment: _sched_start_internal used once
_task_block 000000EE

Symbol: _task_block
   Definitions
      At line 392 in file MQXLITE\\psp\\cortex_m\\core\\M0\\dispatch.S
   Uses
      At line 65 in file MQXLITE\\psp\\cortex_m\\core\\M0\\dispatch.S
Comment: _task_block used once
find_noempty_que 0000005C

Symbol: find_noempty_que
   Definitions
      At line 182 in file MQXLITE\\psp\\cortex_m\\core\\M0\\dispatch.S
   Uses
      At line 188 in file MQXLITE\\psp\\cortex_m\\core\\M0\\dispatch.S
      At line 199 in file MQXLITE\\psp\\cortex_m\\core\\M0\\dispatch.S

move_pc_at_the_start_of_stackframe 000000D4

Symbol: move_pc_at_the_start_of_stackframe
   Definitions
      At line 272 in file MQXLITE\\psp\\cortex_m\\core\\M0\\dispatch.S
   Uses
      At line 268 in file MQXLITE\\psp\\cortex_m\\core\\M0\\dispatch.S
Comment: move_pc_at_the_start_of_stackframe used once
no_one_to_run 00000068

Symbol: no_one_to_run
   Definitions
      At line 191 in file MQXLITE\\psp\\cortex_m\\core\\M0\\dispatch.S
   Uses
      None
Comment: no_one_to_run unused
rest_of_stack_frame_restore 000000B0

Symbol: rest_of_stack_frame_restore
   Definitions
      At line 251 in file MQXLITE\\psp\\cortex_m\\core\\M0\\dispatch.S
   Uses
      At line 239 in file MQXLITE\\psp\\cortex_m\\core\\M0\\dispatch.S
Comment: rest_of_stack_frame_restore used once
return_from_interrupt 000000A0

Symbol: return_from_interrupt
   Definitions
      At line 240 in file MQXLITE\\psp\\cortex_m\\core\\M0\\dispatch.S
   Uses
      None
Comment: return_from_interrupt unused
sched_internal 0000005A

Symbol: sched_internal
   Definitions
      At line 180 in file MQXLITE\\psp\\cortex_m\\core\\M0\\dispatch.S
   Uses
      At line 91 in file MQXLITE\\psp\\cortex_m\\core\\M0\\dispatch.S
      At line 100 in file MQXLITE\\psp\\cortex_m\\core\\M0\\dispatch.S



ARM Macro Assembler    Page 6 Alphabetic symbol ordering
Relocatable symbols

      At line 419 in file MQXLITE\\psp\\cortex_m\\core\\M0\\dispatch.S
      At line 628 in file MQXLITE\\psp\\cortex_m\\core\\M0\\dispatch.S

switch_task 00000072

Symbol: switch_task
   Definitions
      At line 201 in file MQXLITE\\psp\\cortex_m\\core\\M0\\dispatch.S
   Uses
      At line 185 in file MQXLITE\\psp\\cortex_m\\core\\M0\\dispatch.S
Comment: switch_task used once
37 symbols



ARM Macro Assembler    Page 1 Alphabetic symbol ordering
Absolute symbols

FP_CONTEXT_CLEAR_MASK 0000FDFF

Symbol: FP_CONTEXT_CLEAR_MASK
   Definitions
      At line 93 in file MQXLITE\\psp\\cortex_m\\core\\M0\\psp_prv.inc
   Uses
      None
Comment: FP_CONTEXT_CLEAR_MASK unused
FP_CONTEXT_SAVED_MASK 00000200

Symbol: FP_CONTEXT_SAVED_MASK
   Definitions
      At line 92 in file MQXLITE\\psp\\cortex_m\\core\\M0\\psp_prv.inc
   Uses
      None
Comment: FP_CONTEXT_SAVED_MASK unused
FP_TASK_MASK 00000002

Symbol: FP_TASK_MASK
   Definitions
      At line 91 in file MQXLITE\\psp\\cortex_m\\core\\M0\\psp_prv.inc
   Uses
      None
Comment: FP_TASK_MASK unused
HASH_ISR_ADDR 00000004

Symbol: HASH_ISR_ADDR
   Definitions
      At line 69 in file .\\MQXLITE\\psp\\cortex_m\\types.inc
   Uses
      None
Comment: HASH_ISR_ADDR unused
HASH_ISR_DATA 0000000C

Symbol: HASH_ISR_DATA
   Definitions
      At line 71 in file .\\MQXLITE\\psp\\cortex_m\\types.inc
   Uses
      None
Comment: HASH_ISR_DATA unused
HASH_ISR_EXCEPT_HNDL 00000008

Symbol: HASH_ISR_EXCEPT_HNDL
   Definitions
      At line 70 in file .\\MQXLITE\\psp\\cortex_m\\types.inc
   Uses
      None
Comment: HASH_ISR_EXCEPT_HNDL unused
HASH_ISR_NEXT 00000010

Symbol: HASH_ISR_NEXT
   Definitions
      At line 72 in file .\\MQXLITE\\psp\\cortex_m\\types.inc
   Uses
      None
Comment: HASH_ISR_NEXT unused
HASH_ISR_NUM 00000000

Symbol: HASH_ISR_NUM



ARM Macro Assembler    Page 2 Alphabetic symbol ordering
Absolute symbols

   Definitions
      At line 68 in file .\\MQXLITE\\psp\\cortex_m\\types.inc
   Uses
      None
Comment: HASH_ISR_NUM unused
IT_APP_ISR 00000000

Symbol: IT_APP_ISR
   Definitions
      At line 64 in file .\\MQXLITE\\psp\\cortex_m\\types.inc
   Uses
      None
Comment: IT_APP_ISR unused
IT_APP_ISR_DATA 00000008

Symbol: IT_APP_ISR_DATA
   Definitions
      At line 66 in file .\\MQXLITE\\psp\\cortex_m\\types.inc
   Uses
      At line 537 in file MQXLITE\\psp\\cortex_m\\core\\M0\\dispatch.S
Comment: IT_APP_ISR_DATA used once
IT_APP_ISR_EXCEPTION_HANDLER 00000004

Symbol: IT_APP_ISR_EXCEPTION_HANDLER
   Definitions
      At line 65 in file .\\MQXLITE\\psp\\cortex_m\\types.inc
   Uses
      None
Comment: IT_APP_ISR_EXCEPTION_HANDLER unused
KD_ACTIVE_PTR 0000001C

Symbol: KD_ACTIVE_PTR
   Definitions
      At line 89 in file .\\MQXLITE\\psp\\cortex_m\\types.inc
   Uses
      At line 115 in file MQXLITE\\psp\\cortex_m\\core\\M0\\dispatch.S
      At line 173 in file MQXLITE\\psp\\cortex_m\\core\\M0\\dispatch.S
      At line 204 in file MQXLITE\\psp\\cortex_m\\core\\M0\\dispatch.S
      At line 400 in file MQXLITE\\psp\\cortex_m\\core\\M0\\dispatch.S
      At line 588 in file MQXLITE\\psp\\cortex_m\\core\\M0\\dispatch.S
      At line 625 in file MQXLITE\\psp\\cortex_m\\core\\M0\\dispatch.S

KD_ACTIVE_SR 0000001A

Symbol: KD_ACTIVE_SR
   Definitions
      At line 88 in file .\\MQXLITE\\psp\\cortex_m\\types.inc
   Uses
      At line 207 in file MQXLITE\\psp\\cortex_m\\core\\M0\\dispatch.S
Comment: KD_ACTIVE_SR used once
KD_ADDRESSING_CAPABILITY 00000000

Symbol: KD_ADDRESSING_CAPABILITY
   Definitions
      At line 77 in file .\\MQXLITE\\psp\\cortex_m\\types.inc
   Uses
      None
Comment: KD_ADDRESSING_CAPABILITY unused
KD_CONFIG1 00000010



ARM Macro Assembler    Page 3 Alphabetic symbol ordering
Absolute symbols


Symbol: KD_CONFIG1
   Definitions
      At line 83 in file .\\MQXLITE\\psp\\cortex_m\\types.inc
   Uses
      None
Comment: KD_CONFIG1 unused
KD_CONFIG2 00000012

Symbol: KD_CONFIG2
   Definitions
      At line 84 in file .\\MQXLITE\\psp\\cortex_m\\types.inc
   Uses
      None
Comment: KD_CONFIG2 unused
KD_CPU_TYPE 00000008

Symbol: KD_CPU_TYPE
   Definitions
      At line 79 in file .\\MQXLITE\\psp\\cortex_m\\types.inc
   Uses
      None
Comment: KD_CPU_TYPE unused
KD_CURRENT_READY_Q 00000024

Symbol: KD_CURRENT_READY_Q
   Definitions
      At line 91 in file .\\MQXLITE\\psp\\cortex_m\\types.inc
   Uses
      At line 114 in file MQXLITE\\psp\\cortex_m\\core\\M0\\dispatch.S
      At line 181 in file MQXLITE\\psp\\cortex_m\\core\\M0\\dispatch.S
      At line 203 in file MQXLITE\\psp\\cortex_m\\core\\M0\\dispatch.S
      At line 596 in file MQXLITE\\psp\\cortex_m\\core\\M0\\dispatch.S

KD_DEFAULT_ISR 00000028

Symbol: KD_DEFAULT_ISR
   Definitions
      At line 92 in file .\\MQXLITE\\psp\\cortex_m\\types.inc
   Uses
      At line 638 in file MQXLITE\\psp\\cortex_m\\core\\M0\\dispatch.S
Comment: KD_DEFAULT_ISR used once
KD_DISABLE_SR 00000016

Symbol: KD_DISABLE_SR
   Definitions
      At line 86 in file .\\MQXLITE\\psp\\cortex_m\\types.inc
   Uses
      None
Comment: KD_DISABLE_SR unused
KD_DSP_ACTIVE_PTR 0000004C

Symbol: KD_DSP_ACTIVE_PTR
   Definitions
      At line 102 in file .\\MQXLITE\\psp\\cortex_m\\types.inc
   Uses
      None
Comment: KD_DSP_ACTIVE_PTR unused
KD_ENDIANESS 00000004



ARM Macro Assembler    Page 4 Alphabetic symbol ordering
Absolute symbols


Symbol: KD_ENDIANESS
   Definitions
      At line 78 in file .\\MQXLITE\\psp\\cortex_m\\types.inc
   Uses
      None
Comment: KD_ENDIANESS unused
KD_FIRST_USER_ISR_VECTOR 0000002C

Symbol: KD_FIRST_USER_ISR_VECTOR
   Definitions
      At line 93 in file .\\MQXLITE\\psp\\cortex_m\\types.inc
   Uses
      At line 487 in file MQXLITE\\psp\\cortex_m\\core\\M0\\dispatch.S
Comment: KD_FIRST_USER_ISR_VECTOR used once
KD_FLAGS 00000014

Symbol: KD_FLAGS
   Definitions
      At line 85 in file .\\MQXLITE\\psp\\cortex_m\\types.inc
   Uses
      None
Comment: KD_FLAGS unused
KD_FP_ACTIVE_PTR 00000048

Symbol: KD_FP_ACTIVE_PTR
   Definitions
      At line 101 in file .\\MQXLITE\\psp\\cortex_m\\types.inc
   Uses
      None
Comment: KD_FP_ACTIVE_PTR unused
KD_INTERRUPT_CONTEXT_PTR 00000034

Symbol: KD_INTERRUPT_CONTEXT_PTR
   Definitions
      At line 95 in file .\\MQXLITE\\psp\\cortex_m\\types.inc
   Uses
      At line 453 in file MQXLITE\\psp\\cortex_m\\core\\M0\\dispatch.S
      At line 457 in file MQXLITE\\psp\\cortex_m\\core\\M0\\dispatch.S
      At line 574 in file MQXLITE\\psp\\cortex_m\\core\\M0\\dispatch.S
      At line 660 in file MQXLITE\\psp\\cortex_m\\core\\M0\\dispatch.S

KD_INTERRUPT_STACK_PTR 0000003C

Symbol: KD_INTERRUPT_STACK_PTR
   Definitions
      At line 97 in file .\\MQXLITE\\psp\\cortex_m\\types.inc
   Uses
      None
Comment: KD_INTERRUPT_STACK_PTR unused
KD_INTERRUPT_TABLE_PTR 00000038

Symbol: KD_INTERRUPT_TABLE_PTR
   Definitions
      At line 96 in file .\\MQXLITE\\psp\\cortex_m\\types.inc
   Uses
      At line 534 in file MQXLITE\\psp\\cortex_m\\core\\M0\\dispatch.S
Comment: KD_INTERRUPT_TABLE_PTR used once
KD_IN_ISR 00000018



ARM Macro Assembler    Page 5 Alphabetic symbol ordering
Absolute symbols


Symbol: KD_IN_ISR
   Definitions
      At line 87 in file .\\MQXLITE\\psp\\cortex_m\\types.inc
   Uses
      At line 110 in file MQXLITE\\psp\\cortex_m\\core\\M0\\dispatch.S
      At line 445 in file MQXLITE\\psp\\cortex_m\\core\\M0\\dispatch.S
      At line 447 in file MQXLITE\\psp\\cortex_m\\core\\M0\\dispatch.S
      At line 579 in file MQXLITE\\psp\\cortex_m\\core\\M0\\dispatch.S
      At line 581 in file MQXLITE\\psp\\cortex_m\\core\\M0\\dispatch.S

KD_LAST_USER_ISR_VECTOR 00000030

Symbol: KD_LAST_USER_ISR_VECTOR
   Definitions
      At line 94 in file .\\MQXLITE\\psp\\cortex_m\\types.inc
   Uses
      At line 476 in file MQXLITE\\psp\\cortex_m\\core\\M0\\dispatch.S
Comment: KD_LAST_USER_ISR_VECTOR used once
KD_LOG_CONTROL 00000040

Symbol: KD_LOG_CONTROL
   Definitions
      At line 99 in file .\\MQXLITE\\psp\\cortex_m\\types.inc
   Uses
      None
Comment: KD_LOG_CONTROL unused
KD_LOG_OLD_TD 00000044

Symbol: KD_LOG_OLD_TD
   Definitions
      At line 100 in file .\\MQXLITE\\psp\\cortex_m\\types.inc
   Uses
      None
Comment: KD_LOG_OLD_TD unused
KD_PSP_CFG_MEMORY_ALIGNMENT 0000000A

Symbol: KD_PSP_CFG_MEMORY_ALIGNMENT
   Definitions
      At line 80 in file .\\MQXLITE\\psp\\cortex_m\\types.inc
   Uses
      None
Comment: KD_PSP_CFG_MEMORY_ALIGNMENT unused
KD_PSP_CFG_MEM_STOREBLOCK_ALIGNMENT 0000000E

Symbol: KD_PSP_CFG_MEM_STOREBLOCK_ALIGNMENT
   Definitions
      At line 82 in file .\\MQXLITE\\psp\\cortex_m\\types.inc
   Uses
      None
Comment: KD_PSP_CFG_MEM_STOREBLOCK_ALIGNMENT unused
KD_PSP_CFG_STACK_ALIGNMENT 0000000C

Symbol: KD_PSP_CFG_STACK_ALIGNMENT
   Definitions
      At line 81 in file .\\MQXLITE\\psp\\cortex_m\\types.inc
   Uses
      None
Comment: KD_PSP_CFG_STACK_ALIGNMENT unused



ARM Macro Assembler    Page 6 Alphabetic symbol ordering
Absolute symbols

KD_READY_Q_LIST 00000020

Symbol: KD_READY_Q_LIST
   Definitions
      At line 90 in file .\\MQXLITE\\psp\\cortex_m\\types.inc
   Uses
      At line 198 in file MQXLITE\\psp\\cortex_m\\core\\M0\\dispatch.S
Comment: KD_READY_Q_LIST used once
KD_SYSTEM_TD 00000050

Symbol: KD_SYSTEM_TD
   Definitions
      At line 103 in file .\\MQXLITE\\psp\\cortex_m\\types.inc
   Uses
      None
Comment: KD_SYSTEM_TD unused
PREEMPTION_DISABLED 00001000

Symbol: PREEMPTION_DISABLED
   Definitions
      At line 94 in file MQXLITE\\psp\\cortex_m\\core\\M0\\psp_prv.inc
   Uses
      None
Comment: PREEMPTION_DISABLED unused
PSP_CNFG 00000000

Symbol: PSP_CNFG
   Definitions
      At line 81 in file MQXLITE\\psp\\cortex_m\\core\\M0\\psp_prv.inc
   Uses
      None
Comment: PSP_CNFG unused
PSP_CNFG_FP_REGISTERS_EXIST 00004000

Symbol: PSP_CNFG_FP_REGISTERS_EXIST
   Definitions
      At line 65 in file MQXLITE\\psp\\cortex_m\\core\\M0\\psp_prv.inc
   Uses
      None
Comment: PSP_CNFG_FP_REGISTERS_EXIST unused
PSP_CNFG_MQX_KERNEL_LOGGING 00008000

Symbol: PSP_CNFG_MQX_KERNEL_LOGGING
   Definitions
      At line 64 in file MQXLITE\\psp\\cortex_m\\core\\M0\\psp_prv.inc
   Uses
      None
Comment: PSP_CNFG_MQX_KERNEL_LOGGING unused
RQ_ENABLE_SR 0000000C

Symbol: RQ_ENABLE_SR
   Definitions
      At line 58 in file .\\MQXLITE\\psp\\cortex_m\\types.inc
   Uses
      None
Comment: RQ_ENABLE_SR unused
RQ_HEAD_READY_Q 00000000

Symbol: RQ_HEAD_READY_Q



ARM Macro Assembler    Page 7 Alphabetic symbol ordering
Absolute symbols

   Definitions
      At line 55 in file .\\MQXLITE\\psp\\cortex_m\\types.inc
   Uses
      At line 416 in file MQXLITE\\psp\\cortex_m\\core\\M0\\dispatch.S
Comment: RQ_HEAD_READY_Q used once
RQ_NEXT_Q 00000008

Symbol: RQ_NEXT_Q
   Definitions
      At line 57 in file .\\MQXLITE\\psp\\cortex_m\\types.inc
   Uses
      At line 186 in file MQXLITE\\psp\\cortex_m\\core\\M0\\dispatch.S
Comment: RQ_NEXT_Q used once
RQ_PRIORITY 0000000E

Symbol: RQ_PRIORITY
   Definitions
      At line 59 in file .\\MQXLITE\\psp\\cortex_m\\types.inc
   Uses
      None
Comment: RQ_PRIORITY unused
RQ_TAIL_READY_Q 00000004

Symbol: RQ_TAIL_READY_Q
   Definitions
      At line 56 in file .\\MQXLITE\\psp\\cortex_m\\types.inc
   Uses
      None
Comment: RQ_TAIL_READY_Q unused
SVC_MQX_FN 000000AA

Symbol: SVC_MQX_FN
   Definitions
      At line 49 in file MQXLITE\\psp\\cortex_m\\core\\M0\\dispatch.S
   Uses
      None
Comment: SVC_MQX_FN unused
TD_FLAGS 00000028

Symbol: TD_FLAGS
   Definitions
      At line 49 in file .\\MQXLITE\\psp\\cortex_m\\types.inc
   Uses
      At line 589 in file MQXLITE\\psp\\cortex_m\\core\\M0\\dispatch.S
Comment: TD_FLAGS used once
TD_FLOAT_CONTEXT_PTR 00000034

Symbol: TD_FLOAT_CONTEXT_PTR
   Definitions
      At line 50 in file .\\MQXLITE\\psp\\cortex_m\\types.inc
   Uses
      None
Comment: TD_FLOAT_CONTEXT_PTR unused
TD_HOME_QUEUE 00000020

Symbol: TD_HOME_QUEUE
   Definitions
      At line 46 in file .\\MQXLITE\\psp\\cortex_m\\types.inc
   Uses



ARM Macro Assembler    Page 8 Alphabetic symbol ordering
Absolute symbols

      None
Comment: TD_HOME_QUEUE unused
TD_MY_QUEUE 0000001C

Symbol: TD_MY_QUEUE
   Definitions
      At line 45 in file .\\MQXLITE\\psp\\cortex_m\\types.inc
   Uses
      At line 116 in file MQXLITE\\psp\\cortex_m\\core\\M0\\dispatch.S
Comment: TD_MY_QUEUE used once
TD_RESERVED_1 00000026

Symbol: TD_RESERVED_1
   Definitions
      At line 48 in file .\\MQXLITE\\psp\\cortex_m\\types.inc
   Uses
      None
Comment: TD_RESERVED_1 unused
TD_STACK_BASE 00000010

Symbol: TD_STACK_BASE
   Definitions
      At line 42 in file .\\MQXLITE\\psp\\cortex_m\\types.inc
   Uses
      None
Comment: TD_STACK_BASE unused
TD_STACK_LIMIT 00000018

Symbol: TD_STACK_LIMIT
   Definitions
      At line 44 in file .\\MQXLITE\\psp\\cortex_m\\types.inc
   Uses
      None
Comment: TD_STACK_LIMIT unused
TD_STACK_PTR 00000014

Symbol: TD_STACK_PTR
   Definitions
      At line 43 in file .\\MQXLITE\\psp\\cortex_m\\types.inc
   Uses
      At line 174 in file MQXLITE\\psp\\cortex_m\\core\\M0\\dispatch.S
      At line 219 in file MQXLITE\\psp\\cortex_m\\core\\M0\\dispatch.S
      At line 401 in file MQXLITE\\psp\\cortex_m\\core\\M0\\dispatch.S
      At line 626 in file MQXLITE\\psp\\cortex_m\\core\\M0\\dispatch.S

TD_STATE 00000008

Symbol: TD_STATE
   Definitions
      At line 40 in file .\\MQXLITE\\psp\\cortex_m\\types.inc
   Uses
      At line 405 in file MQXLITE\\psp\\cortex_m\\core\\M0\\dispatch.S
      At line 408 in file MQXLITE\\psp\\cortex_m\\core\\M0\\dispatch.S

TD_TASK_ID 0000000C

Symbol: TD_TASK_ID
   Definitions
      At line 41 in file .\\MQXLITE\\psp\\cortex_m\\types.inc



ARM Macro Assembler    Page 9 Alphabetic symbol ordering
Absolute symbols

   Uses
      None
Comment: TD_TASK_ID unused
TD_TASK_SR 00000024

Symbol: TD_TASK_SR
   Definitions
      At line 47 in file .\\MQXLITE\\psp\\cortex_m\\types.inc
   Uses
      At line 206 in file MQXLITE\\psp\\cortex_m\\core\\M0\\dispatch.S
Comment: TD_TASK_SR used once
TD_TD_NEXT 00000000

Symbol: TD_TD_NEXT
   Definitions
      At line 38 in file .\\MQXLITE\\psp\\cortex_m\\types.inc
   Uses
      At line 415 in file MQXLITE\\psp\\cortex_m\\core\\M0\\dispatch.S
Comment: TD_TD_NEXT used once
TD_TD_PREV 00000004

Symbol: TD_TD_PREV
   Definitions
      At line 39 in file .\\MQXLITE\\psp\\cortex_m\\types.inc
   Uses
      At line 414 in file MQXLITE\\psp\\cortex_m\\core\\M0\\dispatch.S
      At line 417 in file MQXLITE\\psp\\cortex_m\\core\\M0\\dispatch.S

60 symbols



ARM Macro Assembler    Page 1 Alphabetic symbol ordering
External symbols

_klog_isr_end_internal 00000000

Symbol: _klog_isr_end_internal
   Definitions
      At line 53 in file MQXLITE\\psp\\cortex_m\\core\\M0\\dispatch.S
   Uses
      None
Comment: _klog_isr_end_internal unused
_klog_isr_start_internal 00000000

Symbol: _klog_isr_start_internal
   Definitions
      At line 52 in file MQXLITE\\psp\\cortex_m\\core\\M0\\dispatch.S
   Uses
      None
Comment: _klog_isr_start_internal unused
_mqx_api_call_handler 00000000

Symbol: _mqx_api_call_handler
   Definitions
      At line 54 in file MQXLITE\\psp\\cortex_m\\core\\M0\\dispatch.S
   Uses
      None
Comment: _mqx_api_call_handler unused
_mqx_kernel_data 00000000

Symbol: _mqx_kernel_data
   Definitions
      At line 47 in file MQXLITE\\psp\\cortex_m\\core\\M0\\psp_prv.inc
      At line 51 in file MQXLITE\\psp\\cortex_m\\core\\M0\\dispatch.S
   Uses
      At line 159 in macro GET_KERNEL_DATA
      at line 90 in file MQXLITE\\psp\\cortex_m\\core\\M0\\dispatch.S
Warning: _mqx_kernel_data multiply definedComment: _mqx_kernel_data used once
_mqx_system_stack 00000000

Symbol: _mqx_system_stack
   Definitions
      At line 48 in file MQXLITE\\psp\\cortex_m\\core\\M0\\psp_prv.inc
   Uses
      None
Comment: _mqx_system_stack unused
_psp_abort_sp 00000000

Symbol: _psp_abort_sp
   Definitions
      At line 53 in file MQXLITE\\psp\\cortex_m\\core\\M0\\psp_prv.inc
   Uses
      None
Comment: _psp_abort_sp unused
_psp_fiq_sp 00000000

Symbol: _psp_fiq_sp
   Definitions
      At line 51 in file MQXLITE\\psp\\cortex_m\\core\\M0\\psp_prv.inc
   Uses
      None
Comment: _psp_fiq_sp unused
_psp_irq_sp 00000000



ARM Macro Assembler    Page 2 Alphabetic symbol ordering
External symbols


Symbol: _psp_irq_sp
   Definitions
      At line 50 in file MQXLITE\\psp\\cortex_m\\core\\M0\\psp_prv.inc
   Uses
      None
Comment: _psp_irq_sp unused
_psp_undef_sp 00000000

Symbol: _psp_undef_sp
   Definitions
      At line 52 in file MQXLITE\\psp\\cortex_m\\core\\M0\\psp_prv.inc
   Uses
      None
Comment: _psp_undef_sp unused
9 symbols
439 symbols in table
